(dp1
VHaryana
p2
(dp3
VYamuna Nagar
p4
(lp5
VBilaspur
p6
aVChhachhrauli
p7
aVJagadhri
p8
aVMustafabad
p9
aVRadaur
p10
aVSadhaura
p11
asVJind
p12
(lp13
VAlewa
p14
aVJind
p15
aVJulana
p16
aVNarwana
p17
aVPillukhera
p18
aVSafidon
p19
aVUchana Kalan
p20
asVGurgaon
p21
(lp22
VFarukh Nagar
p23
aVFirozepur Jhirkha
p24
aVGurgaon
p25
aVNagina
p26
aVNuh
p27
aVPataudi
p28
aVPunhana
p29
aVSohna
p30
aVTaoru
p31
asVSirsa
p32
(lp33
VBaragudha
p34
aVDabwali
p35
aVEllenabad
p36
aVNathusari Chopta
p37
aVOdhan
p38
aVRania
p39
aVSirsa
p40
asVKaithal
p41
(lp42
VGuhla
p43
aVKaithal
p44
aVKalayat
p45
aVPundri
p46
aVRajound
p47
asVMohindergarh
p48
(lp49
VAteli Nangal
p50
aVKanina
p51
aVMohindergarh
p52
aVNangal Chaudhary
p53
aVNarnaul
p54
asVJhajjar
p55
(lp56
VBahadurgarh
p57
aVBeri
p58
aVJhajjar
p59
aVMatenhail
p60
aVSahlawas
p61
asVPanipat
p62
(lp63
VBapauli
p64
aVIsrana
p65
aVMadlauda
p66
aVPanipat
p67
aVSamalkha
p68
asVFaridabad
p69
(lp70
VBallabgarh
p71
aVFaridabad
p72
aVHassanpur
p73
aVHathin
p74
aVHodal
p75
aVPalwal
p76
asVKarnal
p77
(lp78
VAssandh
p79
aVGharaunda
p80
aVIndri
p81
aVKarnal
p82
aVNilo Kheri
p83
aVNissing
p84
asVAmbala
p85
(lp86
VAmbala
p87
aVBarara
p88
aVNaraingarh
p89
aVShahzadpur
p90
asVBhiwani
p91
(lp92
VBadhra
p93
aVBawani Khera
p94
aVBhiwani
p95
aVDadri-I
p96
aVDadri-II
p97
aVKairu
p98
aVLoharu
p99
aVSiwani
p100
aVTosham
p101
asVHisar
p102
(lp103
VAdampur
p104
aVAgroha
p105
aVBarwala
p106
aVHansi I
p107
aVHansi-II
p108
aVHisar I
p109
aVHisar-II
p110
aVNarnaund
p111
aVUklana
p112
asVFatehabad
p113
(lp114
VBhattu Kalan
p115
aVBhuna
p116
aVFatehabad
p117
aVRatia
p118
aVTohana
p119
asVRewari
p120
(lp121
VBawal
p122
aVJatusana
p123
aVKhol At Rewari
p124
aVNahar
p125
aVRewari
p126
asVKurukshetra
p127
(lp128
VBabain
p129
aVLadwa
p130
aVPehowa
p131
aVShahbad
p132
aVThanesar
p133
asVRohtak
p134
(lp135
VKalanaur
p136
aVLakhan Majra
p137
aVMeham
p138
aVRohtak
p139
aVSampla
p140
asVPanchkula
p141
(lp142
VBarwala
p143
aVMorni
p144
aVPinjore
p145
aVRaipur Rani
p146
asVSonepat
p147
(lp148
VGanaur
p149
aVGohana
p150
aVKathura
p151
aVKharkhauda
p152
aVMudlana
p153
aVRai
p154
aVSonepat
p155
assVPunjab
p156
(dp157
VSangrur
p158
(lp159
VAmargarh
p160
aVAndana
p161
aVBhawanigarh
p162
aVDhuri
p163
aVLehragaga
p164
aVMalerkotla-I
p165
aVMalerkotla-II
p166
aVSangrur
p167
aVSherpur
p168
aVSunam
p169
asVRopar
p170
(lp171
VAnandpur Sahib
p172
aVChamkaur Sahib
p173
aVMorinda
p174
aVNurpur Bedi
p175
aVRoopnagar
p176
asVNawashahar
p177
(lp178
VAur
p179
aVBalachaur
p180
aVBanga
p181
aVNawanshahr
p182
aVSaroya
p183
asVAmritsar
p184
(lp185
VAjnala
p186
aVChogawan
p187
aVHarsha Chhina
p188
aVJandiala
p189
aVMajitha
p190
aVRayya
p191
aVTarsika
p192
aVVerka
p193
asVJalandhar
p194
(lp195
VAdampur
p196
aVBhogpur
p197
aVJalandhar East
p198
aVJalandhar West
p199
aVLohian
p200
aVNakodar
p201
aVNurmehal
p202
aVPhillaur
p203
aVRurka
p204
aVShahkot
p205
asVMoga
p206
(lp207
VBaghapurana
p208
aVKot Ise Khan
p209
aVMoga I
p210
aVMoga II
p211
aVNihal singh wala
p212
asVBathinda
p213
(lp214
VBathinda
p215
aVBhagta
p216
aVMaur
p217
aVNathana
p218
aVPhul
p219
aVRampura
p220
aVSangat
p221
aVTalwandi Sabo
p222
asVLudhiana
p223
(lp224
VDehlon
p225
aVDoraha
p226
aVJagraon
p227
aVKhanna
p228
aVLudhiana I
p229
aVLudhiana II
p230
aVMachhiwara
p231
aVPakhowal
p232
aVSamrala
p233
aVSidhwan Bet
p234
aVSudhar
p235
asVFerozepur
p236
(lp237
VFerozepur
p238
aVGhall Khurd
p239
aVGuruharsahai
p240
aVMakhu
p241
aVMamdot
p242
aVZira
p243
asVBarnala
p244
(lp245
VBarnala
p246
aVMehal Kalan
p247
aVSehna
p248
asVGurdaspur
p249
(lp250
VBatala
p251
aVDera Baba Nanak
p252
aVDhariwal
p253
aVDinanagar
p254
aVFatehgarh Churian
p255
aVGurdaspur
p256
aVKahnuwan
p257
aVKalanour
p258
aVQadian
p259
aVShri Har Gobindpur
p260
asVFaridkot
p261
(lp262
VFaridkot
p263
aVKotkapura
p264
asVFatehgarh Sahib
p265
(lp266
VAmloh
p267
aVBassi Pathana
p268
aVKhamano
p269
aVKhera
p270
aVSirhind
p271
asVMohali
p272
(lp273
VMajri
p274
aVKharar
p275
aVDera Bassi
p276
asVHoshiarpur
p277
(lp278
VBhunga
p279
aVDasuya
p280
aVGarhshankar
p281
aVHajipur
p282
aVHoshiarpur-1
p283
aVHoshiarpur-2
p284
aVMahilpur
p285
aVMukerian
p286
aVTalwara
p287
aVTanda
p288
asVPathankot
p289
(lp290
VBamial
p291
aVDhar Kalan
p292
aVNarot Jaimal Singh
p293
aVPathankot
p294
aVSujanpur
p295
asVPatiala
p296
(lp297
VBhunerheri
p298
aVGhanour
p299
aVNabha
p300
aVPatiala
p301
aVPatran
p302
aVRajpura
p303
aVSamana
p304
aVSanour
p305
asVFazilka
p306
(lp307
VAbohar
p308
aVFazilka
p309
aVKhuian Sarwar
p310
aVJalalabad
p311
asVMukatsar
p312
(lp313
VKot Bhai At Gidderbaha
p314
aVLambi
p315
aVMalout
p316
aVMuktsar
p317
asVMansa
p318
(lp319
VBhikhi
p320
aVBudhlada
p321
aVJhunir
p322
aVMansa
p323
aVSardulgarh
p324
asVKapurthala
p325
(lp326
VDhilwan
p327
aVKapurthala
p328
aVNadala
p329
aVPhagwara
p330
aVSultanpur
p331
asVTarn Taran
p332
(lp333
VBhikhiwind
p334
aVChohla Sahib
p335
aVGandiwind
p336
aVKhadoor Sahib
p337
aVNaushera Pannuan
p338
aVPatti
p339
aVTarn Taran
p340
aVValtoha
p341
assVGoa
p342
(dp343
VSouth Goa
p344
(lp345
VCanacona
p346
aVMormugao
p347
aVQuepem
p348
aVSalcete
p349
aVSanguem
p350
asVNorth Goa
p351
(lp352
VBardez
p353
aVBicholim
p354
aVPernem
p355
aVPonda
p356
aVSattari
p357
aVTiswadi
p358
assVChhattisgarh
p359
(dp360
VMahasamund
p361
(lp362
VBagbahara
p363
aVBasna
p364
aVMahasamund
p365
aVPithora
p366
aVSaraipali
p367
asVBalod
p368
(lp369
VBalod
p370
aVDondi
p371
aVDondi Lohara
p372
aVGunderdahi
p373
aVGurur
p374
asVNarayanpur
p375
(lp376
VNarayanpur
p377
aVOrchha
p378
asVRaigarh
p379
(lp380
VBaramkela
p381
aVDharamjaigarh
p382
aVGharghoda
p383
aVKharsia
p384
aVLailunga
p385
aVPussore
p386
aVRaigarh
p387
aVSarangarh
p388
aVTamnar
p389
asVKorba
p390
(lp391
VKartala
p392
aVKatghora
p393
aVKorba
p394
aVPali
p395
aVPodiuproda
p396
asVJangir-Champa
p397
(lp398
VAkaltara
p399
aVBaloda
p400
aVBamhnidih
p401
aVDabhara
p402
aVJaijaipur
p403
aVMalkharada
p404
aVNawagarh
p405
aVPamgarh
p406
aVSakti
p407
asVRajnandgaon
p408
(lp409
VChhuikhadan
p410
aVChhuria
p411
aVChowki
p412
aVDongargarh
p413
aVDongergaon
p414
aVKhairagarh
p415
aVManpur
p416
aVMohla
p417
aVRajnandgaon
p418
asVGariaband
p419
(lp420
VChhura
p421
aVDeobhog
p422
aVGariaband
p423
aVMainpur
p424
aVRajim
p425
asVDhamtari
p426
(lp427
VDhamtari
p428
aVKurud
p429
aVMagarlod
p430
aVNagri
p431
asVBalodabazar
p432
(lp433
VBalodabazar
p434
aVBhatapara
p435
aVBilaigarh
p436
aVKasdol
p437
aVPallari
p438
aVSimga
p439
asVJashpur
p440
(lp441
VBagicha
p442
aVDuldula
p443
aVFarsabahar
p444
aVJashpur
p445
aVKansabel
p446
aVKunkuri
p447
aVManora
p448
aVPathalgaon
p449
asVBemetra
p450
(lp451
VBemetara
p452
aVBerla
p453
aVNawagarh
p454
aVSaja
p455
asVBijapur
p456
(lp457
VBhairamgarh
p458
aVBhopalpatnam
p459
aVBijapur
p460
aVUsoor
p461
asVKoria
p462
(lp463
VBaikunthpur
p464
aVBharatpur
p465
aVKhadgawan
p466
aVManedragarh
p467
aVSonhat
p468
asVDantewada
p469
(lp470
VDantewada
p471
aVGeedam
p472
aVKatekalyan
p473
aVKuakonda
p474
asVSurguja
p475
(lp476
VAmbikapur
p477
aVBatauli
p478
aVLakhanpur
p479
aVLundra
p480
aVMainpat
p481
aVSitapur
p482
aVUdaipur
p483
asVBastar
p484
(lp485
VBakawand
p486
aVBastanar
p487
aVBastar
p488
aVDarbha
p489
aVJagdalpur
p490
aVLohandiguda
p491
aVTokapal
p492
asVBalrampur
p493
(lp494
VKusmi
p495
aVShankargarh
p496
aVRajpur
p497
aVBalrampur
p498
aVRamchandarpur
p499
aVWadrafnagar
p500
asVBilaspur
p501
(lp502
VBilha
p503
aVGourella
p504
aVKota
p505
aVMarawahi
p506
aVMasturi
p507
aVPendra
p508
aVTakhatpur
p509
asVRaipur
p510
(lp511
VAbhanpur
p512
aVArang
p513
aVDharsiwa
p514
aVTilda
p515
asVSurajpur
p516
(lp517
VSurajpur
p518
aVPremnagar
p519
aVRamanujnagar
p520
aVOdagi
p521
aVBhaiyathan
p522
aVPratappur
p523
asVSukma
p524
(lp525
VChhindgarh
p526
aVSukma
p527
aVKonta
p528
asVKanker
p529
(lp530
VAntagarh
p531
aVBhanupratappur
p532
aVCharama
p533
aVDurgukondal
p534
aVKanker
p535
aVKoelibeda
p536
aVNarharpur
p537
asVKondagaon
p538
(lp539
VBaderajpur
p540
aVKeshkal
p541
aVPharasgaon
p542
aVKondagaon
p543
aVMakdi
p544
asVDurg
p545
(lp546
VDhamdha
p547
aVDurg
p548
aVPatan
p549
asVMungeli
p550
(lp551
VMungeli
p552
aVPathariya
p553
aVLormi
p554
asVKawardha
p555
(lp556
VBodla
p557
aVKawardha
p558
aVPandariya
p559
aVSahaspur/Lohara
p560
assVKerala
p561
(dp562
VErnakulam
p563
(lp564
VAlengad
p565
aVAnkamaly
p566
aVEdappally
p567
aVKoovappady
p568
aVKothamangalam
p569
aVMulanthuruthy
p570
aVMuvatupuzha
p571
aVPalluruthy
p572
aVPampakuda
p573
aVParakkadavu
p574
aVParavur
p575
aVVadavucode
p576
aVVazhakkulam
p577
aVVypeen
p578
aVVyttila
p579
asVPalakkad
p580
(lp581
VAlathur
p582
aVAttappady
p583
aVChittur
p584
aVKollengode
p585
aVKuzhalmannam
p586
aVMalampuzha
p587
aVMannarkkad
p588
aVNenmara
p589
aVOttappalam
p590
aVPalakkad
p591
aVPattambi
p592
aVS.K.Puram
p593
aVThrithala
p594
asVMalappuram
p595
(lp596
VAreacode
p597
aVKondotty
p598
aVKuttippuram
p599
aVMalappuram
p600
aVMankada
p601
aVNilambur
p602
aVPerinthalmanna
p603
aVPerumpadappu
p604
aVPonani
p605
aVTanur
p606
aVTirur
p607
aVTirurangadi
p608
aVVengara
p609
aVWandoor
p610
asVKozhikode
p611
(lp612
VBalussery
p613
aVChelannur
p614
aVKoduvally
p615
aVKozhikode
p616
aVKunnamangulam
p617
aVKunnummel
p618
aVMelady
p619
aVPanthalayani
p620
aVPerambra
p621
aVThodannur
p622
aVTuneri
p623
aVVadakara
p624
asVAlappuzha
p625
(lp626
VAmbalapuzha
p627
aVAryad
p628
aVBharanikavu
p629
aVChampakulam
p630
aVChengannur
p631
aVHaripad
p632
aVKanjikuzhy
p633
aVMavelikara
p634
aVMuthukulam
p635
aVPattanakkad
p636
aVThycattussery
p637
aVVeliyanad
p638
asVWayanad
p639
(lp640
VKalpetta
p641
aVMananthavady
p642
aVS.Battery
p643
asVKottayam
p644
(lp645
VErattupetta
p646
aVEttumanoor
p647
aVKaduthuruthy
p648
aVKanjirappally
p649
aVLalam
p650
aVMadappally
p651
aVPallom
p652
aVPampady
p653
aVUzhavoor
p654
aVVaikom
p655
aVVazhoor
p656
asVPathanamthitta
p657
(lp658
VElanthur
p659
aVKoipuram
p660
aVKonni
p661
aVKulanada
p662
aVMallappally
p663
aVPandalam
p664
aVParakode
p665
aVPulikeezh
p666
aVRanny
p667
asVIdukki
p668
(lp669
VAdimaly
p670
aVAzhutha
p671
aVDevikulam
p672
aVElemdesam
p673
aVIdukki
p674
aVKattappana
p675
aVNedumkandom
p676
aVThodupuzha
p677
asVKollam
p678
(lp679
VAnchal
p680
aVAnchalumoodu
p681
aVChadayamangalam
p682
aVChavara
p683
aVChittumala
p684
aVIthikkara
p685
aVKarunagappally
p686
aVKottarakkara
p687
aVMukhathala
p688
aVOachira
p689
aVPathanapuram
p690
aVSasthamkotta
p691
aVVettikkavala
p692
asVThrissur
p693
(lp694
VAnthikkad
p695
aVChalakkudy
p696
aVChavakkad
p697
aVCherpu
p698
aVChowannur
p699
aVIrinjalakuda
p700
aVKodakara
p701
aVKodungallur
p702
aVMala
p703
aVMathilakam
p704
aVMullassery
p705
aVOllukkara
p706
aVPazhayannur
p707
aVPuzhakkal
p708
aVThalikulam
p709
aVVellangallur
p710
aVWadakkanchery
p711
asVThiruvananthapuram
p712
(lp713
VAthiyannur
p714
aVChirayinkeezh
p715
aVKazhakkuttam
p716
aVKilimanoor
p717
aVNedumangad
p718
aVNemom
p719
aVParassala
p720
aVPerumkadavila
p721
aVTvm(R)
p722
aVVamanapuram
p723
aVVarkala
p724
aVVellanad
p725
asVKasaragod
p726
(lp727
VKanhangad
p728
aVKasaragod
p729
aVManjeshwar
p730
aVNileshwar
p731
asVKannur
p732
(lp733
VEdakkad
p734
aVIrikkur
p735
aVIritty
p736
aVKannur
p737
aVKuthuparamba
p738
aVPayyanur
p739
aVPeravoor
p740
aVTaliparamba
p741
aVThalasseri
p742
assVDadra And Nagar Haveli
p743
(dp744
VDadra And Nagar Haveli
p745
(lp746
VAmboli
p747
aVDadra
p748
aVDapada
p749
aVDudhani
p750
aVKhanvel
p751
aVKilwani
p752
aVMandoni
p753
aVNaroli
p754
aVRandha
p755
aVSilvassa
p756
assVLakshadweep (UT)
p757
(dp758
sVBihar
p759
(dp760
VShekhpura
p761
(lp762
VAriari
p763
aVBarbigha
p764
aVChewara
p765
aVGhat Kusumbha
p766
aVShekhopur Sarai
p767
aVShekhpura
p768
asVSamastipur
p769
(lp770
VBibhutipur
p771
aVBithan
p772
aVDalsingh Sarai
p773
aVHasanpur
p774
aVKalyanpur
p775
aVKhanpur
p776
aVMohanpur
p777
aVMohiuddinnagar
p778
aVMorwa
p779
aVPatori
p780
aVPusa
p781
aVRosera
p782
aVSamastipur
p783
aVSarairanjan
p784
aVShivaji Nagar
p785
aVSinghia
p786
aVTajpur
p787
aVUjiarpur
p788
aVVidya Pati Nagar
p789
aVWarisnagar
p790
asVMunger
p791
(lp792
VAsharganj
p793
aVBariarpur
p794
aVDharhara
p795
aVJamalpur
p796
aVKharagpur
p797
aVMunger Sadar
p798
aVSangrampur
p799
aVTarapur
p800
aVTetia Bamber
p801
asVLakhisarai
p802
(lp803
VBarahiya
p804
aVHalsi
p805
aVLakhisarai
p806
aVPiparia
p807
aVRamgarh Chowk
p808
aVSuryagarha
p809
asVGopalganj
p810
(lp811
VBaikunthpur
p812
aVBarauli
p813
aVBhore
p814
aVGopalganj
p815
aVHathwa
p816
aVKataiya
p817
aVKuchaikot
p818
aVManjha
p819
aVPanchdewari
p820
aVPhulwaria
p821
aVSidhwalia
p822
aVThawe
p823
aVUchkagaon
p824
aVVijaypur
p825
asVPatna
p826
(lp827
VAthmalgola
p828
aVBakhtiarpur
p829
aVBarh
p830
aVBelchhi
p831
aVBihta
p832
aVBikram
p833
aVDanapur
p834
aVDaniyawan
p835
aVDhanarua
p836
aVDulhin Bazar
p837
aVFatuhan
p838
aVFulwari
p839
aVGhoswari
p840
aVKhushrupur
p841
aVManer
p842
aVMasaurhi
p843
aVMokama
p844
aVNaubatpur
p845
aVPaliganj
p846
aVPandarak
p847
aVPatna Sadar
p848
aVPunpun
p849
aVSampatchak
p850
asVRohtas
p851
(lp852
VAkhorhi Gola
p853
aVBikramganj
p854
aVChenari
p855
aVDawath
p856
aVDehri
p857
aVDinara
p858
aVKarakat
p859
aVKargahar
p860
aVKchas
p861
aVNasri Ganj
p862
aVNauhatta
p863
aVNokha
p864
aVRajpur
p865
aVRohtas
p866
aVSanjhauli
p867
aVSasaram
p868
aVSheo Sagar
p869
aVSuryapura
p870
aVTilauthu
p871
asVMadhepura
p872
(lp873
VAlamnagar
p874
aVBihari Ganj
p875
aVChausa
p876
aVGamharia
p877
aVGhailar
p878
aVGwalpara
p879
aVKumarkhand
p880
aVMadhepura
p881
aVMurliganj
p882
aVPuraini
p883
aVShankarpur
p884
aVSingheshwar
p885
aVUdakishanganj
p886
asVMuzaffarpur
p887
(lp888
VAurai
p889
aVBandra
p890
aVBochaha
p891
aVGaighat
p892
aVKanti
p893
aVKatra
p894
aVKurhani
p895
aVMarwan
p896
aVMinapur
p897
aVMotipur
p898
aVMuraul
p899
aVMushahari
p900
aVParu
p901
aVSahebganj
p902
aVSakra
p903
aVSaraiya
p904
asVSheohar
p905
(lp906
VDumri Katsari
p907
aVPiprahi
p908
aVPurnahia
p909
aVSheohar
p910
aVTariyani
p911
asVAraria
p912
(lp913
VAraria
p914
aVBhargama
p915
aVForbisganj
p916
aVJoukihat
p917
aVKursakanta
p918
aVNarpatganj
p919
aVPalasi
p920
aVRaniganj
p921
aVSikti
p922
asVPurnea
p923
(lp924
VAmaur
p925
aVBaisa
p926
aVBaisi
p927
aVBanmankhi
p928
aVBarhara Kothi
p929
aVBhawanipur
p930
aVDagarua
p931
aVDhamdaha
p932
aVJalalgarh
p933
aVKasba
p934
aVKritya Nand Nagar
p935
aVPurnia East
p936
aVRupauli
p937
aVSri Nagar
p938
asVBuxar
p939
(lp940
VBrahmpur
p941
aVBuxar
p942
aVChakki
p943
aVChaugai
p944
aVChausa
p945
aVDumraon
p946
aVItarhi
p947
aVKesath
p948
aVNawanagar
p949
aVRajpur
p950
aVSimri
p951
asVChapra(Saran)
p952
(lp953
VAmnaur
p954
aVBaniapur
p955
aVDariyapur
p956
aVDighwara
p957
aVEkma
p958
aVGarkha
p959
aVIsuapur
p960
aVJalalpur
p961
aVLahiadpur
p962
aVMaker
p963
aVManjhi
p964
aVMarhaura
p965
aVMashrakh
p966
aVNagra
p967
aVPanapur
p968
aVParsa
p969
aVRivilganj
p970
aVSadar Chapra
p971
aVSonpur
p972
aVTaraiya
p973
asVWest Champaran
p974
(lp975
VBairia
p976
aVBettiah
p977
aVBgaha
p978
aVBhitaha
p979
aVChanpatia
p980
aVfggfggfgg
p981
aVGaunaha
p982
aVLauriya
p983
aVMadhubani
p984
aVMainatanr
p985
aVManjhaulia
p986
aVNarkatiaganj
p987
aVNautan
p988
aVPiparasi
p989
aVRamnagar
p990
aVSidhaw
p991
aVSikta
p992
aVThakrahan
p993
aVYogapatti
p994
asVEast Champaran
p995
(lp996
VAdapur
p997
aVAreraj
p998
aVBanjaria
p999
aVBankatwa
p1000
aVChakia or Pipra
p1001
aVChhauradanaw
p1002
aVChiraiya
p1003
aVDhaka
p1004
aVGhorasahan
p1005
aVHarsidhhi
p1006
aVKalyanpur
p1007
aVKesaria
p1008
aVKotwa
p1009
aVMadhuban
p1010
aVMehsi
p1011
aVMotihari
p1012
aVNarkatia or Chhauradano
p1013
aVPaharpur
p1014
aVPakri Dayal
p1015
aVPatahi
p1016
aVPhenhara
p1017
aVPipra Kothi
p1018
aVRamgarhwa
p1019
aVRaxaul
p1020
aVSangrampur
p1021
aVSugauli
p1022
aVTetaria
p1023
aVTurkaulia
p1024
asVKatihar
p1025
(lp1026
VAjamnagar
p1027
aVAmdabad
p1028
aVBalrampur
p1029
aVBarari
p1030
aVBarsoi
p1031
aVDandkhora
p1032
aVFalka
p1033
aVHasanganj
p1034
aVKadwa
p1035
aVKatihar
p1036
aVKorha
p1037
aVKursela
p1038
aVManihari
p1039
aVMansahi
p1040
aVPranpur
p1041
aVSameli
p1042
asVKaimur (Bhabhua)
p1043
(lp1044
VAdhaura
p1045
aVBhabhua
p1046
aVBhagwanpur
p1047
aVChainpur
p1048
aVChand
p1049
aVDurgawati
p1050
aVKudra
p1051
aVMohania
p1052
aVNuawan
p1053
aVRamgarh
p1054
aVRampur
p1055
asVGaya
p1056
(lp1057
VAmas
p1058
aVAtri
p1059
aVBanke Bazar
p1060
aVBarachatti
p1061
aVBathani
p1062
aVBelaganj
p1063
aVBodh Gaya
p1064
aVBodhgaya
p1065
aVDobhi
p1066
aVDumaria
p1067
aVFatehpur
p1068
aVGuraru
p1069
aVGurua
p1070
aVImamganj
p1071
aVKhijasarai
p1072
aVKonch
p1073
aVManpur
p1074
aVMohanpur
p1075
aVMohra
p1076
aVNagar
p1077
aVParaiya
p1078
aVSherghati
p1079
aVTankuppa
p1080
aVTekari
p1081
aVWazirganj
p1082
asVNawada
p1083
(lp1084
VAkbarpur
p1085
aVGovindpur
p1086
aVHisua
p1087
aVKashichak
p1088
aVKauakol
p1089
aVMeskaur
p1090
aVNardiganj
p1091
aVNarhat
p1092
aVNawada
p1093
aVPakri Barwan
p1094
aVRajauli
p1095
aVRoh
p1096
aVSirdala
p1097
aVWarsalliganj
p1098
asVMadhubani
p1099
(lp1100
VAndhrartharhi
p1101
aVBabu Barhi
p1102
aVBasopatti
p1103
aVBenipatti
p1104
aVBisfi
p1105
aVGhoghardiha
p1106
aVHarlakhi
p1107
aVJainagar
p1108
aVJhanjharpur
p1109
aVKaluahi
p1110
aVKhajauli
p1111
aVKhutauna
p1112
aVLadania
p1113
aVLakhnaur
p1114
aVLaukahi
p1115
aVMadhepur
p1116
aVMadhwapur
p1117
aVPandaul
p1118
aVPhulparas
p1119
aVRahika
p1120
aVRajnagar
p1121
asVSaharsa
p1122
(lp1123
VBanma Itahari
p1124
aVKahara
p1125
aVMahishi
p1126
aVNauhatta
p1127
aVPatarghat
p1128
aVSalkhua
p1129
aVSatarkateya
p1130
aVSaurbazar
p1131
aVSimri Bakhtiarpur
p1132
aVSonbarsa
p1133
asVBegusarai
p1134
(lp1135
VBacchwara
p1136
aVBakhri
p1137
aVBaliya
p1138
aVBarauni
p1139
aVBegusarai
p1140
aVBhagwanpur
p1141
aVBirpur
p1142
aVCheriabariarpur
p1143
aVChorhani
p1144
aVDandari
p1145
aVGarhpura
p1146
aVKhodwantpur
p1147
aVMansurchak
p1148
aVMatihani
p1149
aVNawkothi
p1150
aVSahebpur Kamal
p1151
aVShamho Akha Kurha
p1152
aVTeghara
p1153
asVSupaul
p1154
(lp1155
VBasantpur
p1156
aVChhatapur
p1157
aVKishanpur
p1158
aVMarauna
p1159
aVNirmalli
p1160
aVPipra
p1161
aVPratapganj
p1162
aVRaghopur
p1163
aVSaraigarh Bhaptiahi
p1164
aVSupaul
p1165
aVTriveniganj
p1166
asVBanka
p1167
(lp1168
VAmarpur
p1169
aVBanka
p1170
aVBarahat
p1171
aVBaunsi
p1172
aVBelhar
p1173
aVChanan
p1174
aVDhoraiya
p1175
aVFulli Dumar
p1176
aVKatoria
p1177
aVRajaun
p1178
aVShambhuganj
p1179
asVSiwan
p1180
(lp1181
VAndar
p1182
aVBarharia
p1183
aVBasantpur
p1184
aVBhagwanpur Hat
p1185
aVDarauli
p1186
aVDaraundha
p1187
aVGoraiyakothi
p1188
aVGuthani
p1189
aVHasanpura
p1190
aVHussainganj
p1191
aVLakri Nabiganj
p1192
aVMaharajganj
p1193
aVMairwa
p1194
aVNautan
p1195
aVPanchrukhi
p1196
aVRaghunathpur
p1197
aVSiswan
p1198
aVSiwan
p1199
aVZiradei
p1200
asVArwal
p1201
(lp1202
VArwal
p1203
aVBanshi Surajpur
p1204
aVKaler
p1205
aVKarpi
p1206
aVKurtha
p1207
asVSitamarhi
p1208
(lp1209
VBajpatti
p1210
aVBargania
p1211
aVBathnaha
p1212
aVBelsand
p1213
aVBokhra
p1214
aVChoraut
p1215
aVDumra
p1216
aVMajor Ganj
p1217
aVNanpur
p1218
aVParihar
p1219
aVParsauni
p1220
aVPupari
p1221
aVRiga
p1222
aVRunnisaidpur
p1223
aVSonbarsa
p1224
aVSuppi
p1225
aVSursand
p1226
asVAurangabad
p1227
(lp1228
VAurangabad
p1229
aVBarun
p1230
aVDaudnagar
p1231
aVDeo
p1232
aVGoh
p1233
aVHaspura
p1234
aVKutumba
p1235
aVMadanpur
p1236
aVNabinagar
p1237
aVObra
p1238
aVRafiganj
p1239
asVDarbhanga
p1240
(lp1241
VAlinagar
p1242
aVBahadurpur
p1243
aVBaheri
p1244
aVBenipur
p1245
aVBiraul
p1246
aVDarbhanga
p1247
aVGaura Bauram
p1248
aVGhanshyampur
p1249
aVHanuman Nagar
p1250
aVHayaghat
p1251
aVJale
p1252
aVKeoti
p1253
aVKiratpur
p1254
aVKsheshwar Sthan
p1255
aVKusheshwar Sthan East
p1256
aVManigachhi
p1257
aVSingwara
p1258
aVTard Dih
p1259
asVNalanda
p1260
(lp1261
VAsthawan
p1262
aVBen
p1263
aVBihar Sharif
p1264
aVBind
p1265
aVChandi
p1266
aVEkangarsarai
p1267
aVGiriak
p1268
aVHarnaut
p1269
aVHilsa
p1270
aVIslampur
p1271
aVKarai Parsurai
p1272
aVKatri Sarai
p1273
aVNagarnausa
p1274
aVNoorsarai
p1275
aVParwalpur
p1276
aVRahui
p1277
aVRajgir
p1278
aVSarmera
p1279
aVSilaw
p1280
aVTharthari
p1281
asVVaishali
p1282
(lp1283
VBhagwanpur
p1284
aVBidupur
p1285
aVChehrakala
p1286
aVDesari
p1287
aVGoroul
p1288
aVHajipur
p1289
aVJandaha
p1290
aVLalganj
p1291
aVMahnar
p1292
aVMahua
p1293
aVPatepur
p1294
aVPaterhi Belsar
p1295
aVRaghopur
p1296
aVRajapakar
p1297
aVSahdai Bujurg
p1298
aVVaishali
p1299
asVKhagaria
p1300
(lp1301
VAlauli
p1302
aVBeldaur
p1303
aVChautham
p1304
aVGogari
p1305
aVKhagaria
p1306
aVMansi
p1307
aVParbatta
p1308
asVJamui
p1309
(lp1310
VAliganj
p1311
aVBarhat
p1312
aVChakai
p1313
aVGidhaur
p1314
aVJamui
p1315
aVJhajha
p1316
aVKhaira
p1317
aVLaxmipur
p1318
aVSikandra
p1319
aVSono
p1320
asVBhojpur
p1321
(lp1322
VAgion
p1323
aVArah
p1324
aVBarhara
p1325
aVBihia
p1326
aVCharpokhari
p1327
aVGarhani
p1328
aVJagdishpur
p1329
aVKoilwar
p1330
aVPiro
p1331
aVSahar
p1332
aVSandesh
p1333
aVShahpur
p1334
aVTarari
p1335
aVUdwantnagar
p1336
asVBhagalpur
p1337
(lp1338
VBihpur
p1339
aVGauradih
p1340
aVGopalpur
p1341
aVIsmilepur
p1342
aVJagdishpur
p1343
aVKahalgaon
p1344
aVKharik
p1345
aVNarayanpur
p1346
aVNathnagar
p1347
aVNaugachhia
p1348
aVPirpaiti
p1349
aVRengra Chowk
p1350
aVSabaur
p1351
aVSanhaula
p1352
aVShahkund
p1353
aVSultanganj
p1354
asVKishanganj
p1355
(lp1356
VBahadurganj
p1357
aVDighalbank
p1358
aVKishanganj
p1359
aVKoch Dhaman
p1360
aVPothia
p1361
aVTerhagachhi
p1362
aVThakurganj
p1363
asVJahanabad
p1364
(lp1365
VGhosi
p1366
aVHulashganj
p1367
aVJahanabad
p1368
aVKako
p1369
aVMakhdumpur
p1370
aVModanganj
p1371
aVRatni Faridpur
p1372
assVJharkhand
p1373
(dp1374
VPakur
p1375
(lp1376
VAmrapara
p1377
aVHiranpur
p1378
aVLittipara
p1379
aVMaheshpur
p1380
aVPakur Sadar
p1381
aVPakuria
p1382
asVRanchi
p1383
(lp1384
VAngara
p1385
aVBero
p1386
aVBurmu
p1387
aVChanho
p1388
aVKanke
p1389
aVLapung
p1390
aVMandar
p1391
aVNamkum
p1392
aVOrmanjhi
p1393
aVRatu
p1394
aVSilli
p1395
asVGodda
p1396
(lp1397
VBoarijore
p1398
aVGodda Sadar
p1399
aVMahagama
p1400
aVMeharma
p1401
aVPathargama
p1402
aVPoraihat
p1403
aVSunderpahari
p1404
aVThakurgangti
p1405
asVChatra
p1406
(lp1407
VChatra Sadar
p1408
aVGidhor
p1409
aVHunter Ganj
p1410
aVItkhori
p1411
aVKunda
p1412
aVLawalong
p1413
aVPathal Gadda
p1414
aVPratappur
p1415
aVSimaria
p1416
aVTandwa
p1417
asVSimdega
p1418
(lp1419
VBano
p1420
aVBolba
p1421
aVJaldega
p1422
aVKolebira
p1423
aVKurdeg
p1424
aVSimdega Sadar
p1425
aVThcthaitanger
p1426
asVKhunti
p1427
(lp1428
VKarra
p1429
aVKhunti
p1430
aVMurhu
p1431
aVRania
p1432
aVTorpa
p1433
aVSonahatu
p1434
aVBundu
p1435
aVBundu
p1436
aVTamar
p1437
aVArki
p1438
asVBokaro
p1439
(lp1440
VBermo
p1441
aVChandankiyari
p1442
aVChas
p1443
aVGomia
p1444
aVJaridhi
p1445
aVKasmar
p1446
aVNawadih
p1447
aVPetarwar
p1448
asVDeoghar
p1449
(lp1450
VDeogarh Sadar
p1451
aVDevipur
p1452
aVKaron
p1453
aVMadhupur
p1454
aVMohanpur
p1455
aVPalajori
p1456
aVSarath
p1457
aVSarwan
p1458
asVWest Singhbhum
p1459
(lp1460
VBendgaon
p1461
aVChaibasa
p1462
aVChakradharpur
p1463
aVGoelkera
p1464
aVJagannathpur
p1465
aVJhinkpani
p1466
aVKhuntpani
p1467
aVKurnardungi
p1468
aVManjhari
p1469
aVManjhgaon
p1470
aVManoharpur
p1471
aVNoamundi
p1472
aVSonua
p1473
aVTantnagar
p1474
aVTonto
p1475
asVJamtara
p1476
(lp1477
VJamtara Sadar
p1478
aVKundhit
p1479
aVNala
p1480
aVNarayanpur
p1481
asVEast Singhbhum
p1482
(lp1483
VBahragora
p1484
aVChakulia
p1485
aVDhalbhumgarh
p1486
aVDumaria
p1487
aVGhatsila
p1488
aVJamshedpur Sadar
p1489
aVMusabani
p1490
aVPatamda
p1491
aVPotka
p1492
asVRamgarh
p1493
(lp1494
VGola
p1495
aVMandu
p1496
aVPatratu
p1497
aVRamgarh
p1498
asVGumla
p1499
(lp1500
VBasia
p1501
aVBharno
p1502
aVBishnupur
p1503
aVChainpur
p1504
aVDumri
p1505
aVGhaghra
p1506
aVGumla Sadar
p1507
aVKamdara
p1508
aVPalkot
p1509
aVRaidih
p1510
aVSisai
p1511
asVPalamau
p1512
(lp1513
VBishrampur
p1514
aVChainpur
p1515
aVChattarpur
p1516
aVDaltonganj Sadar
p1517
aVHariharganj
p1518
aVHussainabad
p1519
aVLesliganj
p1520
aVManatu
p1521
aVPandu
p1522
aVPanki
p1523
aVPatan
p1524
aVSatbarwa
p1525
asVDumka
p1526
(lp1527
VDumka Sadar
p1528
aVGopikander
p1529
aVJama
p1530
aVJarmundi
p1531
aVKathikund
p1532
aVMasalia
p1533
aVRamgarh
p1534
aVRaneshwar
p1535
aVSaraiyahaat
p1536
aVShikaripara
p1537
asVGarhwa
p1538
(lp1539
VBhandaria
p1540
aVBhawanathpur
p1541
aVChinia
p1542
aVDandai
p1543
aVDhurki
p1544
aVGarhwa Sadar
p1545
aVKandi
p1546
aVKharaundhi
p1547
aVMajhiaon
p1548
aVMeral
p1549
aVNagaruntari
p1550
aVRamkanda
p1551
aVRamna
p1552
aVRanka
p1553
asVSaraikela Kharsawan
p1554
(lp1555
VChandil
p1556
aVGamharia (Adityapur)
p1557
aVIchagarh
p1558
aVKharsawan
p1559
aVKuchai
p1560
aVNimdih
p1561
aVRajnagar (Govindpur)
p1562
aVSaraikela Sadar
p1563
asVLatehar
p1564
(lp1565
VBalumath
p1566
aVBarwaidih
p1567
aVChandwa
p1568
aVGaru
p1569
aVLatehar Sadar
p1570
aVMahuatand
p1571
aVManika
p1572
asVSahebganj
p1573
(lp1574
VBorio
p1575
aVBurhait
p1576
aVBurharwa
p1577
aVMandro
p1578
aVPatna
p1579
aVRajmahal
p1580
aVSahebganj Sadar
p1581
aVTaljhari
p1582
aVUdhwa
p1583
asVGiridih
p1584
(lp1585
VBagodar
p1586
aVBengabad
p1587
aVBirni
p1588
aVDeori
p1589
aVDumri
p1590
aVGandey
p1591
aVGawan
p1592
aVGiridih Sadar
p1593
aVJamua
p1594
aVPirtand
p1595
aVRaj Dhanwar
p1596
aVTisri
p1597
asVHazaribagh
p1598
(lp1599
VBarhi
p1600
aVBarkagaon
p1601
aVBarkatha
p1602
aVBishnugarh
p1603
aVChauparan
p1604
aVChurchu
p1605
aVHazaribagh Sadar
p1606
aVIchak
p1607
aVKatkamsandi
p1608
aVKeredari
p1609
aVPadma
p1610
asVLohardaga
p1611
(lp1612
VBhandra
p1613
aVKisko
p1614
aVKuru
p1615
aVLohardaga Sadar
p1616
aVSenha
p1617
asVKoderma
p1618
(lp1619
VChandwara
p1620
aVJainagar
p1621
aVKoderma Sadar
p1622
aVMarkacho
p1623
aVSatgawn
p1624
asVDhanbad
p1625
(lp1626
VBaghmara
p1627
aVBaliapur
p1628
aVDhanbad Sadar
p1629
aVGovindpur
p1630
aVJharia
p1631
aVNirsa
p1632
aVTopchanchi
p1633
aVTundi
p1634
assVMeghalaya
p1635
(dp1636
VSouth Garo Hills
p1637
(lp1638
VBaghmara
p1639
aVChokpot
p1640
aVGasuapara
p1641
aVRongara
p1642
asVWest Garo Hills
p1643
(lp1644
VBetasing
p1645
aVDadenggre
p1646
aVDalu
p1647
aVGambegre
p1648
aVRongram
p1649
aVSelsella
p1650
aVTikrikilla
p1651
aVZikzak
p1652
asVWest Khasi Hills
p1653
(lp1654
VMairang
p1655
aVMawkyrwat
p1656
aVMawshynrut
p1657
aVMawthadraishan
p1658
aVNongstoin
p1659
aVRanikor
p1660
asVEast Khasi Hills
p1661
(lp1662
VLaitkroh-Khadar Shnong
p1663
aVMawkynrew
p1664
aVMawphlang
p1665
aVMawryngkneng
p1666
aVMawsynram
p1667
aVMylliem
p1668
aVPynursla
p1669
aVShella Bholaganj
p1670
asVJaintia
p1671
(lp1672
VAmlarem
p1673
aVKhliehriat
p1674
aVLaskein
p1675
aVSaipung
p1676
aVThadlaskein
p1677
asVRi Bhoi
p1678
(lp1679
VJirang
p1680
aVUmling
p1681
aVUmsning
p1682
asVEast Garo Hills
p1683
(lp1684
VDambo Rongjeng
p1685
aVKharkutta
p1686
aVResubelpara
p1687
aVSamanda
p1688
aVSongsak
p1689
assVAssam
p1690
(dp1691
VKamrup Rural
p1692
(lp1693
VBezera
p1694
aVBihdia Jajikona
p1695
aVBoko
p1696
aVBongaon
p1697
aVChamaria
p1698
aVChandrapur
p1699
aVChayani Borduar
p1700
aVChaygaon
p1701
aVDimoria
p1702
aVGoroimari
p1703
aVHajo
p1704
aVKamalpur
p1705
aVRampur
p1706
aVRangia
p1707
aVRani
p1708
aVSualkuchi
p1709
asVDhemaji
p1710
(lp1711
VBordoloni
p1712
aVDhemaji
p1713
aVMachkhowa
p1714
aVMurkongsellek
p1715
aVSissiborgaon
p1716
asVMorigaon
p1717
(lp1718
VBhurbandha
p1719
aVKopili
p1720
aVLahorighat
p1721
aVMayong
p1722
aVMoirabari
p1723
asVHailakandi
p1724
(lp1725
VAlgapur
p1726
aVHailakandi
p1727
aVKatlicherra
p1728
aVLala
p1729
aVSouth Hailakandi
p1730
asVBaksa
p1731
(lp1732
VGobardhana
p1733
aVJalah
p1734
aVGoreswar
p1735
aVBaksa
p1736
aVDhamdhama
p1737
aVNagrijuli
p1738
aVTamulpur
p1739
aVTihu Barama
p1740
asVSibsagar
p1741
(lp1742
VAmguri
p1743
aVDemow
p1744
aVGauri Sagar
p1745
aVLakwa
p1746
aVNazira
p1747
aVPaschim Abhayapur
p1748
aVSapekhati
p1749
aVSivasagar
p1750
aVSonari
p1751
asVN.C.Hills
p1752
(lp1753
VDiyung Valley
p1754
aVDiyungbra
p1755
aVHarangajao
p1756
aVJatinga Valley
p1757
aVNew Sangbar
p1758
asVKokrajhar
p1759
(lp1760
VDotoma
p1761
aVGossaigaon
p1762
aVKachugaon
p1763
aVKokrajhar
p1764
asVDibrugarh
p1765
(lp1766
VBorbarua
p1767
aVJaipur
p1768
aVKhowang
p1769
aVLahowal
p1770
aVPanitola
p1771
aVTengakhat
p1772
aVTingkhong
p1773
asVNowgaon
p1774
(lp1775
VBajiagaon
p1776
aVBarhampur
p1777
aVBatadrava
p1778
aVBinnakandi
p1779
aVDalanghat
p1780
aVDhalapukhuri
p1781
aVJugijan
p1782
aVJuria
p1783
aVKaliabar
p1784
aVKathiatali
p1785
aVKhagarijan
p1786
aVLamding
p1787
aVLaowkhowa
p1788
aVOdali
p1789
aVPakhimaria
p1790
aVPaschim Kaliabar
p1791
aVRaha
p1792
aVRupahihat
p1793
asVJorhat
p1794
(lp1795
VJorhat
p1796
aVJorhat Central
p1797
aVJorhat East
p1798
aVJorhat North West
p1799
aVKaliapani
p1800
aVMajuli
p1801
aVTitabar
p1802
aVUjani Majuli
p1803
asVDarrang
p1804
(lp1805
VBechimari
p1806
aVDalgaon Sialmari
p1807
aVKalaigaon
p1808
aVPachim Mangaldoi
p1809
aVPub Mangaldoi
p1810
aVSipajhar
p1811
asVTinsukia
p1812
(lp1813
VGuijan
p1814
aVHapjan
p1815
aVItakhuli
p1816
aVKakopathar
p1817
aVMargherita
p1818
aVSadiya
p1819
aVSaikhowa
p1820
asVDhubri
p1821
(lp1822
VAgomoni
p1823
aVBilasipara
p1824
aVBirshing Jarua
p1825
aVChapar Salkocha
p1826
aVDebitola
p1827
aVFekamari
p1828
aVGauripur
p1829
aVGolakganj
p1830
aVJamadarhat
p1831
aVMahamaya
p1832
aVMankachar
p1833
aVNayeralga
p1834
aVRupsi
p1835
aVSouth Salmara
p1836
aVHatidhura
p1837
asVGolaghat
p1838
(lp1839
VGamariguri
p1840
aVGolaghat East
p1841
aVGolaghat West
p1842
aVGolaghat Central
p1843
aVGolaghat North
p1844
aVGolaghat South
p1845
aVKakodonga
p1846
aVMorongi
p1847
asVUdalguri
p1848
(lp1849
VBhergaon
p1850
aVKhoirabari
p1851
aVMazbat
p1852
aVRowta Charali
p1853
aVUdalguri
p1854
asVBarpeta
p1855
(lp1856
VBajali
p1857
aVBarpeta
p1858
aVBhabanipur
p1859
aVChakchaka
p1860
aVChenga
p1861
aVGama-Fulbari
p1862
aVMandia
p1863
aVPaka-Betbari
p1864
aVRupsi
p1865
aVSarukhetri
p1866
asVKarbi Anglong
p1867
(lp1868
VAmri
p1869
aVBokajan
p1870
aVChinthong
p1871
aVHowraghat
p1872
aVLangsomepi
p1873
aVLumbajong
p1874
aVNilip
p1875
aVRongkhang
p1876
aVRongmongwe
p1877
aVSamelangso
p1878
aVSocheng
p1879
asVKarimganj
p1880
(lp1881
VBadarpur
p1882
aVDullav Cherra
p1883
aVLowairpoa
p1884
aVNorth Karimganj
p1885
aVPatharkandi
p1886
aVRknagar
p1887
aVSouth Karimganj
p1888
asVSonitpur
p1889
(lp1890
VBaghmora
p1891
aVBalipara
p1892
aVBarchola
p1893
aVBehali
p1894
aVBihaguri
p1895
aVBiswanath
p1896
aVChaiduar
p1897
aVDhekiajuli
p1898
aVGabharu
p1899
aVNaduar
p1900
aVPub Chaiduar
p1901
aVRangapara
p1902
aVSakomatha
p1903
aVSootia
p1904
asVChirang
p1905
(lp1906
VBorobajar
p1907
aVSidli Chirang
p1908
aVSidli Chirang
p1909
asVGoalpara
p1910
(lp1911
VBalijana
p1912
aVJoleshwar
p1913
aVKharmoja
p1914
aVKrishnai
p1915
aVKushdhuwa
p1916
aVLakhipur
p1917
aVMatia
p1918
aVRangjuli
p1919
asVCachar
p1920
(lp1921
VBanskandi
p1922
aVBinnakandi
p1923
aVBorjalenga
p1924
aVBorkhola
p1925
aVKalain
p1926
aVKatigorah
p1927
aVLakhipur
p1928
aVNarsingpur
p1929
aVPalonghat
p1930
aVRajabazar
p1931
aVSalchapra
p1932
aVSilchar
p1933
aVSonai
p1934
aVTapang
p1935
aVUdharbond
p1936
asVNalbari
p1937
(lp1938
VBarbhag
p1939
aVBorigog Bonbhag
p1940
aVBorkhetri
p1941
aVMadhupur
p1942
aVPaschim Nalbari
p1943
aVPub Nalbari
p1944
aVTihu
p1945
asVBongaigaon
p1946
(lp1947
VBoitamari
p1948
aVDangtol
p1949
aVManikpur
p1950
aVSrijangram
p1951
aVTapattari
p1952
asVLakhimpur
p1953
(lp1954
VBihpuria
p1955
aVBoginodi
p1956
aVDhakuakhana
p1957
aVGhilamara
p1958
aVKarunabari
p1959
aVLakhimpur
p1960
aVNarayanpur
p1961
aVNowboicha
p1962
aVTelahi
p1963
assVMadhya Pradesh
p1964
(dp1965
VHoshangabad
p1966
(lp1967
VBabai
p1968
aVBankhedi
p1969
aVHoshangabad
p1970
aVKesla
p1971
aVPipariya
p1972
aVSeoni Malwa
p1973
aVSohagpur
p1974
asVKhargone
p1975
(lp1976
VBarwaha
p1977
aVBhagwanpura
p1978
aVBhikangaon
p1979
aVGogawa
p1980
aVKasrawad
p1981
aVKhargone
p1982
aVMaheshwar
p1983
aVSegaon
p1984
aVZirniya
p1985
asVSehore
p1986
(lp1987
VAshta
p1988
aVBudni
p1989
aVIchhawar
p1990
aVNasrullaganj
p1991
aVSehore
p1992
asVUmria
p1993
(lp1994
VManpur
p1995
aVPali Gohparu
p1996
aVUmaria Karkeli
p1997
asVBetul
p1998
(lp1999
VAmla
p2000
aVAthner
p2001
aVBetul
p2002
aVBhainsdehi
p2003
aVBhimpur
p2004
aVChicholi
p2005
aVGhoda Dongri
p2006
aVMultai
p2007
aVPrabhat Pattan
p2008
aVShahpur
p2009
asVSidhi
p2010
(lp2011
VKusmi
p2012
aVMajholi
p2013
aVRampur Naikin
p2014
aVSidhi (Gopad Banas )
p2015
aVSihawal
p2016
asVDhar
p2017
(lp2018
VBadnawar
p2019
aVBagh
p2020
aVBankaner
p2021
aVDahi
p2022
aVDhar
p2023
aVDharampuri
p2024
aVGandhwani
p2025
aVKukshi
p2026
aVManawar
p2027
aVNalchha
p2028
aVNisarpur
p2029
aVSardarpur
p2030
aVTirla
p2031
asVRewa
p2032
(lp2033
VGangeva
p2034
aVHanumana
p2035
aVJava
p2036
aVMauganj
p2037
aVNaigarhi
p2038
aVRaipur Karchulian
p2039
aVRewa
p2040
aVSirmour
p2041
aVTeonthar
p2042
asVSeopur
p2043
(lp2044
VKarahal
p2045
aVSeopurkalan
p2046
aVVijaypur
p2047
asVMorena
p2048
(lp2049
VAmbah
p2050
aVJoura
p2051
aVKailaras
p2052
aVMorena
p2053
aVPahadgarh
p2054
aVPorsa
p2055
aVSabalgarh
p2056
asVBhopal
p2057
(lp2058
VBersiya
p2059
aVPhanda
p2060
asVGuna
p2061
(lp2062
VAron
p2063
aVBamori
p2064
aVChachoda
p2065
aVGuna
p2066
aVRaghogarh
p2067
asVRajgarh
p2068
(lp2069
VBiaora
p2070
aVJirapur
p2071
aVKhilchipur
p2072
aVNarsighgarh
p2073
aVRajgarh
p2074
aVSarangpur (Pachor)
p2075
asVSeoni
p2076
(lp2077
VBarghat
p2078
aVChhapara
p2079
aVDhanora
p2080
aVGhansor
p2081
aVKevlari
p2082
aVKurai
p2083
aVLakhnadon
p2084
aVSeoni
p2085
asVSatna
p2086
(lp2087
VAmarpatan
p2088
aVChitrakut (Majhgawan)
p2089
aVMaihar
p2090
aVNagod
p2091
aVRam Nagar
p2092
aVRampur Baghelan
p2093
aVSohawal (Satna)
p2094
aVUchehra
p2095
asVVidisha
p2096
(lp2097
VBasoda
p2098
aVGyaraspur
p2099
aVKurvai
p2100
aVLateri
p2101
aVNateran
p2102
aVSironj
p2103
aVVidisha
p2104
asVJabalpur
p2105
(lp2106
VBargi Jabalpur
p2107
aVKundam
p2108
aVMajholi
p2109
aVPanagar
p2110
aVPatan
p2111
aVShahpura Bhitoni
p2112
aVSihora
p2113
asVShivpuri
p2114
(lp2115
VBadarwas
p2116
aVKarera
p2117
aVKhaniya Dhana
p2118
aVKolaras
p2119
aVNarwar
p2120
aVPichhore
p2121
aVPohri
p2122
aVShivpuri
p2123
asVMandsour
p2124
(lp2125
VBhanpura
p2126
aVGaroth
p2127
aVMalhargarh
p2128
aVMandsour
p2129
aVSitamau
p2130
asVSagar
p2131
(lp2132
VBanda
p2133
aVBina
p2134
aVDeori
p2135
aVJaisinagar
p2136
aVKesli
p2137
aVKhurai
p2138
aVMalthon
p2139
aVRahatgarh
p2140
aVRahli
p2141
aVSagar
p2142
aVShahgarh
p2143
asVMandla
p2144
(lp2145
VBichhiya
p2146
aVBijadandi
p2147
aVGughari
p2148
aVMandla
p2149
aVMawai
p2150
aVMohgaon
p2151
aVNainpur
p2152
aVNarayanganj
p2153
aVNiwas
p2154
asVBurhanpur
p2155
(lp2156
VBurhanpur
p2157
aVKhaknar
p2158
asVDamoh
p2159
(lp2160
VBatiyagarh
p2161
aVDamoh
p2162
aVHatta
p2163
aVJabera
p2164
aVPatera
p2165
aVPatharia
p2166
aVTendukheda
p2167
asVKhandwa
p2168
(lp2169
VBaldi
p2170
aVChhegon Makhan
p2171
aVHarsud
p2172
aVKhalwa
p2173
aVKhandwa
p2174
aVPandhana
p2175
aVPunasa
p2176
asVNeemuch
p2177
(lp2178
VJawad
p2179
aVManasa
p2180
aVNeemuch
p2181
asVBhind
p2182
(lp2183
VAter
p2184
aVBhind
p2185
aVGohad
p2186
aVLahar
p2187
aVMehgaon
p2188
aVMihona (Ron)
p2189
asVKatni
p2190
(lp2191
VBadwara
p2192
aVBohriband
p2193
aVDhimarkhera
p2194
aVKatni
p2195
aVRithi
p2196
aVVijayraghogarh
p2197
asVJhabua
p2198
(lp2199
VJhabua
p2200
aVMeghnagar
p2201
aVPetlawad
p2202
aVRama
p2203
aVRanapur
p2204
aVThandla
p2205
asVAshok Nagar
p2206
(lp2207
VAshok Nagar
p2208
aVChanderi
p2209
aVIshagarh
p2210
aVMungawali
p2211
asVTikamgarh
p2212
(lp2213
VBaldeogarh
p2214
aVJatara
p2215
aVNiwari
p2216
aVPalera
p2217
aVPrithivipur
p2218
aVTikamgarh
p2219
asVGwalior
p2220
(lp2221
VBhitarwar
p2222
aVDabra
p2223
aVGhatigaon (Barai)
p2224
aVMorar
p2225
asVPanna
p2226
(lp2227
VAjaygarh
p2228
aVGunnor
p2229
aVPanna
p2230
aVPawai
p2231
aVShahnagar
p2232
asVShajapur
p2233
(lp2234
VAgar
p2235
aVBarod
p2236
aVKalapipal
p2237
aVMoman Barodiya
p2238
aVNalkheda
p2239
aVShajapur
p2240
aVShujalpur
p2241
aVSusner
p2242
asVSingrauli
p2243
(lp2244
VBaidhan
p2245
aVChitrangi
p2246
aVDeosar
p2247
asVShahdol
p2248
(lp2249
VBeohari
p2250
aVBurhar
p2251
aVJaisingh Nagar
p2252
aVGohparu
p2253
aVSohagpur
p2254
asVDewas
p2255
(lp2256
VBagli
p2257
aVDewas
p2258
aVKannod
p2259
aVKhategaon
p2260
aVSonkachh
p2261
aVTonk Khurd
p2262
asVDindori
p2263
(lp2264
VAmarpur
p2265
aVBajag
p2266
aVDindori
p2267
aVKaranjia
p2268
aVMehandwani
p2269
aVShahpura
p2270
aVSmanapur
p2271
asVIndore
p2272
(lp2273
VDepalpur
p2274
aVIndore
p2275
aVMhow
p2276
aVSanwer
p2277
asVBarwani
p2278
(lp2279
VBarwani
p2280
aVNiwali
p2281
aVPansemal
p2282
aVPati
p2283
aVRajpur
p2284
aVSendhwa
p2285
aVThikri
p2286
asVChhatarpur
p2287
(lp2288
VBadamalhara
p2289
aVBijawar
p2290
aVBuxwaha
p2291
aVChhatarpur
p2292
aVGaurihar
p2293
aVLaundi
p2294
aVNowgong
p2295
aVRajnagar
p2296
asVChhindwara
p2297
(lp2298
VAmarwara
p2299
aVBichhua
p2300
aVChhindwara
p2301
aVChourai
p2302
aVHarrai
p2303
aVJunnardeo
p2304
aVMohkhed
p2305
aVPandhurna
p2306
aVParasia
p2307
aVSousar
p2308
aVTamiya
p2309
asVBalaghat
p2310
(lp2311
VBaihar
p2312
aVBalaghat
p2313
aVBirsa
p2314
aVKatangi
p2315
aVKhairlanji
p2316
aVKirnapur
p2317
aVLalbarra
p2318
aVLanji
p2319
aVParaswara
p2320
aVWaraseoni
p2321
asVRaisen
p2322
(lp2323
VBadi Breli
p2324
aVBegamganj
p2325
aVGairtganj
p2326
aVObedullaganj
p2327
aVSanchi
p2328
aVSilwani
p2329
aVUdaipura
p2330
asVHarda
p2331
(lp2332
VHarda
p2333
aVKhirkiya
p2334
aVTimarni
p2335
asVAnuppur
p2336
(lp2337
VAnnupur
p2338
aVJaithari
p2339
aVKotma
p2340
aVPushparajgarh
p2341
asVUjjain
p2342
(lp2343
VBadnagar
p2344
aVGhatiya
p2345
aVKhachrod
p2346
aVMahidpur
p2347
aVTarana
p2348
aVUjjain
p2349
asVDatia
p2350
(lp2351
VBhander
p2352
aVDatia
p2353
aVSeondha
p2354
asVNarsighpur
p2355
(lp2356
VBabai Chichli
p2357
aVChawarpata
p2358
aVGotegaon
p2359
aVKareli
p2360
aVNarsighpur
p2361
aVSaikhda Gadarwada
p2362
asVAlirajpur
p2363
(lp2364
VAlirajpur
p2365
aVBhabra
p2366
aVJobat
p2367
aVKatthiwara
p2368
aVSondwa
p2369
aVUdaigarh
p2370
asVRatlam
p2371
(lp2372
VAlot
p2373
aVBajna
p2374
aVJaora
p2375
aVPiploda
p2376
aVRatlam
p2377
aVSailana
p2378
assVManipur
p2379
(dp2380
VImphal West
p2381
(lp2382
VImphal West-I C.D.Block
p2383
aVImphal West-II C.D.Block
p2384
asVTamenglong
p2385
(lp2386
VNungba T.D.Block
p2387
aVTamei T.D.Block
p2388
aVTamenglong T.D.Block
p2389
aVTousem T.D.Block
p2390
asVSenapati
p2391
(lp2392
VKangpokpi T.D.Block
p2393
aVMao Maram T.D. Block
p2394
aVPaomata T.D.Block
p2395
aVPurul T.D.Block
p2396
aVSaikul T.D.Block
p2397
aVSaitu Gamphazol T.D.Block
p2398
asVImphal East
p2399
(lp2400
VImphal East _II C.D.Block
p2401
aVImphal East-I C.D.Block
p2402
aVJiribam C.D.Block
p2403
asVThoubal
p2404
(lp2405
VKakching C.D.Block
p2406
aVThoubal C.D.Block
p2407
asVUkhrul
p2408
(lp2409
VChingai T.D.Block
p2410
aVKamjong T.D.Block
p2411
aVKasom Khullen T.D.Block
p2412
aVPhungyar T.D.Block
p2413
aVUkhrul T.D.Block
p2414
asVChandel
p2415
(lp2416
VChakpikarong T.D.Block
p2417
aVChandel T.D.Block
p2418
aVMachi T.D.Block
p2419
aVTengnoupal T.D.Block
p2420
asVBishnupur
p2421
(lp2422
VBishnupur C.D. Block
p2423
aVMoirang C.D.Block
p2424
asVChurachandpur
p2425
(lp2426
VChurachandpur T.D.Block
p2427
aVHenglep T.D.Block
p2428
aVParbung T.D.Block
p2429
aVSamulamlan T.D.Block
p2430
aVSinghat T.D.Block
p2431
aVThanlon T.D.Block
p2432
assVTamilnadu
p2433
(dp2434
VTiruppur
p2435
(lp2436
VAvinashi
p2437
aVDharapuram
p2438
aVGudimangalam
p2439
aVKangayam
p2440
aVKundadam
p2441
aVMadathukulam
p2442
aVMulanur
p2443
aVPalladam
p2444
aVPongalur
p2445
aVTiruppur
p2446
aVUdumalpet
p2447
aVUthukuli
p2448
aVVellakoil
p2449
asVThe Nilgiris
p2450
(lp2451
VCoonoor
p2452
aVGudalur
p2453
aVKotagiri
p2454
aVUdhagai
p2455
asVVirudunagar
p2456
(lp2457
VAruppukottai
p2458
aVKariapatti
p2459
aVNarikudi
p2460
aVRajapalayam
p2461
aVSattur
p2462
aVSivakasi
p2463
aVSrivilliputhur
p2464
aVThiruchuli
p2465
aVVembakottai
p2466
aVVirudhunagar
p2467
aVWatrap
p2468
asVKrishnagiri
p2469
(lp2470
VBargur
p2471
aVHosur
p2472
aVKaveripattinam
p2473
aVKelamangalam
p2474
aVKrishnagiri
p2475
aVMathur
p2476
aVShoolagiri
p2477
aVThally
p2478
aVUthangarai
p2479
aVVeppanapalli
p2480
asVKanchipuram
p2481
(lp2482
VAcharapakkam
p2483
aVChithamur
p2484
aVKancheepuram
p2485
aVKattankolathur
p2486
aVKundrathur
p2487
aVLathur
p2488
aVMadurantakam
p2489
aVSriperumbudur
p2490
aVThirukalukundram
p2491
aVThiruporur
p2492
aVThomas Malai
p2493
aVUthiramerur
p2494
aVWalajabad
p2495
asVSivagangai
p2496
(lp2497
VDevakottai
p2498
aVIlayangudi
p2499
aVKalaiyarkoil
p2500
aVKallal
p2501
aVKannangudi
p2502
aVManamadurai
p2503
aVS.Pudur
p2504
aVSakkottai
p2505
aVSingampunari
p2506
aVSivagangai
p2507
aVThiruppathur
p2508
aVThiruppuvanam
p2509
asVTiruvallur
p2510
(lp2511
VEllapuram
p2512
aVGummidipoondi
p2513
aVKadambathur
p2514
aVMinjur
p2515
aVPallipet
p2516
aVPoonamallee
p2517
aVPoondi
p2518
aVPuzhal
p2519
aVR.K.Pet
p2520
aVSholavaram
p2521
aVTiruttani
p2522
aVTiruvalangadu
p2523
aVTiruvallur
p2524
aVVillivakkam
p2525
asVKarur
p2526
(lp2527
VAravakurichi
p2528
aVK Paramathi
p2529
aVKadavur
p2530
aVKarur
p2531
aVKrishnarayapuram
p2532
aVKulithalai
p2533
aVThanthoni
p2534
aVThogamalai
p2535
asVCoimbatore
p2536
(lp2537
VAnaimalai
p2538
aVAnnur
p2539
aVKaramadai
p2540
aVKinathukadavu
p2541
aVMadukkarai
p2542
aVP.N.Palayam
p2543
aVPollachi(N)
p2544
aVPollachi(S)
p2545
aVS.S.Kulam
p2546
aVSultanpet
p2547
aVSulur
p2548
aVThondamuthur
p2549
asVErode
p2550
(lp2551
VAmmapet
p2552
aVAnthiyur
p2553
aVBhavani
p2554
aVBhavanisagar
p2555
aVChennimalai
p2556
aVErode
p2557
aVGobi
p2558
aVKodumudi
p2559
aVModakkuruchi
p2560
aVNambiyur
p2561
aVPerundurai
p2562
aVSathy
p2563
aVT.N. Palayam
p2564
aVTalavadi
p2565
asVAriyalur
p2566
(lp2567
VAndimadam
p2568
aVAriyalur
p2569
aVJayamkondam
p2570
aVSendurai
p2571
aVT Palur
p2572
aVThirumanur
p2573
asVTiruvarur
p2574
(lp2575
VKodavasal
p2576
aVKoradacheri
p2577
aVKottur
p2578
aVMannargudi
p2579
aVMuthupettai
p2580
aVNannilam
p2581
aVNeedamangalam
p2582
aVThiruthuraipoondi
p2583
aVThiruvarur
p2584
aVValangaiman
p2585
asVTiruvannamalai
p2586
(lp2587
VAnakkavoor
p2588
aVArni
p2589
aVChengam
p2590
aVChetpet
p2591
aVCheyyar
p2592
aVJawadumalai
p2593
aVKalasapakkam
p2594
aVKilpenathur
p2595
aVPeranamallur
p2596
aVPolur
p2597
aVPudupalayam
p2598
aVThandrampet
p2599
aVThellar
p2600
aVThurinjapuram
p2601
aVTiruvannamalai
p2602
aVVandavasi
p2603
aVVembakkam
p2604
aVWest Arni
p2605
asVNagapattinam
p2606
(lp2607
VKeelaiyur
p2608
aVKilvelur
p2609
aVKollidam
p2610
aVKuthalam
p2611
aVMayiladuthurai
p2612
aVNagapattinam
p2613
aVSembanarkoil
p2614
aVSirkali
p2615
aVThalainayar
p2616
aVThirumarugal
p2617
aVVedaranyam
p2618
asVNamakkal
p2619
(lp2620
VElacipalayam
p2621
aVErumapatty
p2622
aVKabilarmalai
p2623
aVKollihills
p2624
aVMallasamudram
p2625
aVMohanur
p2626
aVNamagiripet
p2627
aVNamakkal
p2628
aVPallipalayam
p2629
aVParamathy
p2630
aVPuduchatram
p2631
aVRasipuram
p2632
aVSendamangalam
p2633
aVTiruchengode
p2634
aVVennandur
p2635
asVRamanadhapuram
p2636
(lp2637
VBogalur
p2638
aVKadaladi
p2639
aVKamuthi
p2640
aVMandapam
p2641
aVMudukulathur
p2642
aVNainarkoil
p2643
aVParamakudi
p2644
aVR.S. Mangalam
p2645
aVRamanathapuram
p2646
aVThiruppullani
p2647
aVThiruvadanai
p2648
asVTheni
p2649
(lp2650
VAndipatti
p2651
aVBodinaickanur
p2652
aVChinnamanur
p2653
aVCumbum
p2654
aVMyladumparai
p2655
aVPeriyakulam
p2656
aVTheni
p2657
aVUthamapalayam
p2658
asVDharmapuri
p2659
(lp2660
VDharmapuri
p2661
aVHarur
p2662
aVKarimangalam
p2663
aVMorappur
p2664
aVNallampalli
p2665
aVPalacode
p2666
aVPappireddipatti
p2667
aVPennagaram
p2668
asVKanniyakumari
p2669
(lp2670
VAgastheeswaram
p2671
aVKilliyoor
p2672
aVKurunthancode
p2673
aVMelpuram
p2674
aVMunchirai
p2675
aVRajakkamangalam
p2676
aVThiruvattar
p2677
aVThovalai
p2678
aVThuckalay
p2679
asVPerambalur
p2680
(lp2681
VAlathur
p2682
aVPerambalur
p2683
aVVeppanthattai
p2684
aVVeppur
p2685
asVTuticorin
p2686
(lp2687
VAlwarthirunageri
p2688
aVKarungulam
p2689
aVKayathar
p2690
aVKovilpatti
p2691
aVOttapidaram
p2692
aVPudur
p2693
aVSattankulam
p2694
aVSrivaikuntam
p2695
aVThoothukudi
p2696
aVTiruchendur
p2697
aVUdangudi
p2698
aVVilathikulam
p2699
asVCuddalore
p2700
(lp2701
VAnnagramam
p2702
aVCuddalore
p2703
aVKammapuram
p2704
aVKattumannar Koil
p2705
aVKeerapalayam
p2706
aVKumaratchi
p2707
aVKurinjipadi
p2708
aVMangalore
p2709
aVMelbhuvanagiri
p2710
aVNallur
p2711
aVPanruti
p2712
aVParangipettai
p2713
aVVridhachalam
p2714
asVVellore
p2715
(lp2716
VAlangayam
p2717
aVAnaicut
p2718
aVArakonam
p2719
aVArcot
p2720
aVGudiyatham
p2721
aVJolarpet
p2722
aVK.V. Kuppam
p2723
aVKandhili
p2724
aVKaniyambadi
p2725
aVKatpadi
p2726
aVKaveripakkam
p2727
aVMadhanur
p2728
aVNatrampalli
p2729
aVNemili
p2730
aVPernambet
p2731
aVSholinghur
p2732
aVThimiri
p2733
aVThirupathur
p2734
aVVellore
p2735
aVWalajah
p2736
asVDindigul
p2737
(lp2738
VAthoor
p2739
aVBatlagundu
p2740
aVDindigul
p2741
aVGuziliamparai
p2742
aVKodaikanal
p2743
aVNatham
p2744
aVNilakottai
p2745
aVOddanchatram
p2746
aVPalani
p2747
aVReddiarchatram
p2748
aVShanarpatti
p2749
aVThoppampatti
p2750
aVVadamadurai
p2751
aVVedasandur
p2752
asVVillupuram
p2753
(lp2754
VChinnasalem
p2755
aVGingee
p2756
aVKallakurichi
p2757
aVKalrayanhills
p2758
aVKanai
p2759
aVKandamangalam
p2760
aVKoliyanur
p2761
aVMailam
p2762
aVMelmalayanur
p2763
aVMerkanam
p2764
aVMugaiyur
p2765
aVOlakkur
p2766
aVRishivandiyam
p2767
aVSankarapuram
p2768
aVThirukoilur
p2769
aVThirunavalur
p2770
aVThiruvennainallur
p2771
aVThiyagadurgam
p2772
aVUlundurpet
p2773
aVVallam
p2774
aVVanur
p2775
aVVikravandi
p2776
asVMadurai
p2777
(lp2778
VAlanganallur
p2779
aVChellampatti
p2780
aVKallikudi
p2781
aVKottampatti
p2782
aVMadurai East
p2783
aVMadurai West
p2784
aVMelur
p2785
aVSedapatti
p2786
aVT.Kallupatty
p2787
aVThirumangalam
p2788
aVThirupparankundram
p2789
aVUsilampatti
p2790
aVVadipatti
p2791
asVTirunelveli
p2792
(lp2793
VAlankulam
p2794
aVAmbasamudram
p2795
aVCheranmahadevi
p2796
aVKadayam
p2797
aVKadayanallur
p2798
aVKalakadu
p2799
aVKeelapavoor
p2800
aVKuruvikulam
p2801
aVManur
p2802
aVMelaneelithanallur
p2803
aVNanguneri
p2804
aVPalayamkottai
p2805
aVPappakudi
p2806
aVRadhapuram
p2807
aVSankarankoil
p2808
aVShencottai
p2809
aVTenkasi
p2810
aVValliyoor
p2811
aVVasudevanallur
p2812
asVPudukkottai
p2813
(lp2814
VAnnavasal
p2815
aVArantangi
p2816
aVArimalam
p2817
aVAvudayarkoil
p2818
aVGandarvakottai
p2819
aVKarambakkudi
p2820
aVKunnandarkoil
p2821
aVManamelkudi
p2822
aVPonnamaravathi
p2823
aVPudukkottai
p2824
aVThirumayam
p2825
aVThiruvarankulam
p2826
aVViralimalai
p2827
asVTiruchirappalli
p2828
(lp2829
VAndanallur
p2830
aVLalgudi
p2831
aVManachanallur
p2832
aVManapparai
p2833
aVManikandam
p2834
aVMarungapuri
p2835
aVMusiri
p2836
aVPullampady
p2837
aVT.Pet
p2838
aVThiruverambur
p2839
aVThottiam
p2840
aVThuraiyur
p2841
aVUppiliyapuram
p2842
aVVaiyampatty
p2843
asVSalem
p2844
(lp2845
VAttur
p2846
aVAyothiyapattinam
p2847
aVGangavalli
p2848
aVIdappady
p2849
aVKadayampatti
p2850
aVKolathur
p2851
aVKonganapuram
p2852
aVMac. Choultry
p2853
aVMecheri
p2854
aVNangavalli
p2855
aVOmalur
p2856
aVP.N.Palayam
p2857
aVPanamarathupatti
p2858
aVSalem
p2859
aVSankari
p2860
aVThalaivasal
p2861
aVTharamangalam
p2862
aVValapady
p2863
aVVeerapandy
p2864
aVYercaud
p2865
asVThanjavur
p2866
(lp2867
VAmmapet
p2868
aVBudalur
p2869
aVKumbakonam
p2870
aVMadukkur
p2871
aVOrathanadu
p2872
aVPapanasam
p2873
aVPattukkottai
p2874
aVPeravurani
p2875
aVSethubavachatram
p2876
aVThanjavur
p2877
aVThiruvaiyaru
p2878
aVThiruvidaimarudur
p2879
aVThiruvonam
p2880
aVTiruppanandal
p2881
assVRajasthan
p2882
(dp2883
VSri Ganganagar
p2884
(lp2885
VAnupgarh
p2886
aVGanganagar
p2887
aVGharsana
p2888
aVKaranpur
p2889
aVPadampur
p2890
aVRaisinghnagar
p2891
aVSadulshahar
p2892
aVSuratgarh
p2893
asVSirohi
p2894
(lp2895
VAbu Road
p2896
aVPindwara
p2897
aVReodar
p2898
aVSheoganj
p2899
aVSirohi
p2900
asVJaipur
p2901
(lp2902
VAmber
p2903
aVBassi
p2904
aVChaksu
p2905
aVDudu
p2906
aVGovindgarh
p2907
aVJamwa Ramgarh
p2908
aVJhotwara
p2909
aVKotputli
p2910
aVPhagi
p2911
aVSambhar
p2912
aVSanganer
p2913
aVShahpura
p2914
aVViratnagar (Bairath)
p2915
asVDausa
p2916
(lp2917
VBandikui
p2918
aVDausa
p2919
aVLalsot
p2920
aVMahwa
p2921
aVSikrai
p2922
asVBhilwara
p2923
(lp2924
VAsind
p2925
aVBanera
p2926
aVHurda
p2927
aVJahazpur
p2928
aVKotri
p2929
aVMandal
p2930
aVMandalgarh
p2931
aVRaipur
p2932
aVSahara
p2933
aVShahpura
p2934
aVSuwana
p2935
asVBarmer
p2936
(lp2937
VBalotra (Pachpadra)
p2938
aVBarmer
p2939
aVBaytoo
p2940
aVChohtan
p2941
aVDhorimanna (Gudha Malani)
p2942
aVSheo
p2943
aVSindhari
p2944
aVSiwana
p2945
asVJaisalmer
p2946
(lp2947
VJaisalmer
p2948
aVSam
p2949
aVSankra (Pokaran)
p2950
asVSawaimadhopur
p2951
(lp2952
VBamanwas
p2953
aVBonli
p2954
aVGangapur
p2955
aVKhandar
p2956
aVSawaimadhopur
p2957
asVDungarpur
p2958
(lp2959
VAspur
p2960
aVBichhiwara
p2961
aVDungarpur
p2962
aVSagwara
p2963
aVSimalwara
p2964
asVUdaipur
p2965
(lp2966
VBargaon
p2967
aVBhindar
p2968
aVDhariawad
p2969
aVGirwa
p2970
aVGogunda
p2971
aVJhadol
p2972
aVKherwara
p2973
aVKotra
p2974
aVLasadiya
p2975
aVMavli
p2976
aVSalumbar
p2977
aVSarada
p2978
asVAlwar
p2979
(lp2980
VBansur
p2981
aVBehror
p2982
aVKathumar
p2983
aVKishangarh Bas
p2984
aVKotkasim
p2985
aVLachhmangarh
p2986
aVMundawar
p2987
aVNimrana
p2988
aVRajgarh
p2989
aVRamgarh
p2990
aVReni
p2991
aVThanagazi
p2992
aVTijara
p2993
aVUmren
p2994
asVRajsamand
p2995
(lp2996
VAmet
p2997
aVBhim
p2998
aVDeogarh
p2999
aVKhamnor
p3000
aVKumbhalgarh
p3001
aVRailmagra
p3002
aVRajsamand
p3003
asVPali
p3004
(lp3005
VBali
p3006
aVDesuri
p3007
aVJaitaran
p3008
aVMarwar Junction
p3009
aVPali
p3010
aVRaipur
p3011
aVRani
p3012
aVRohat
p3013
aVSojat
p3014
aVSumerpur
p3015
asVJalor
p3016
(lp3017
VAhore
p3018
aVBhinmal
p3019
aVChitalwana
p3020
aVJalor
p3021
aVJaswantpura
p3022
aVRaniwara
p3023
aVSanchore
p3024
aVSayla
p3025
asVBanswara
p3026
(lp3027
VAnandpuri
p3028
aVBagidora
p3029
aVBanswara
p3030
aVChhoti Sarwan
p3031
aVGarhi
p3032
aVGhatol
p3033
aVKushalgarh
p3034
aVPeepal Khoont
p3035
aVSajjangarh
p3036
asVSikar
p3037
(lp3038
VDanta Ramgarh
p3039
aVDhod
p3040
aVFatehpur
p3041
aVKhandela
p3042
aVLachhmangarh
p3043
aVNeem Ka Thana
p3044
aVPiprali
p3045
aVSri Madhopur
p3046
asVPratapgarh
p3047
(lp3048
VArnod
p3049
aVChhoti Sadri
p3050
aVDhariawad
p3051
aVPeepal Khoont
p3052
aVPratapgarh
p3053
asVBundi
p3054
(lp3055
VBundi
p3056
aVHindoli
p3057
aVKeshoraipatan
p3058
aVNainwa
p3059
aVTalera
p3060
asVNagaur
p3061
(lp3062
VDegana
p3063
aVDidwana
p3064
aVJayal
p3065
aVKuchaman City
p3066
aVLadnu
p3067
aVMakrana
p3068
aVMerta
p3069
aVMundwa
p3070
aVNagaur
p3071
aVParbatsar
p3072
aVRiyan
p3073
asVBaran
p3074
(lp3075
VAnta
p3076
aVAtru
p3077
aVBaran
p3078
aVChhabra
p3079
aVChhipabarod
p3080
aVKishanganj
p3081
aVShahbad
p3082
asVKarauli
p3083
(lp3084
VHindaun
p3085
aVKarauli
p3086
aVNadoti
p3087
aVSapotra
p3088
aVTodabhim
p3089
asVKota
p3090
(lp3091
VItawa
p3092
aVKherabad
p3093
aVLadpura
p3094
aVSangod
p3095
aVSultanpur
p3096
asVChittaurgarh
p3097
(lp3098
VArnod
p3099
aVBari Sadri
p3100
aVBegun
p3101
aVBhadesar
p3102
aVBhainsrorgarh
p3103
aVBhopalsagar
p3104
aVChhoti Sadri
p3105
aVChittaurgarh
p3106
aVDungla
p3107
aVGangrar
p3108
aVKapasan
p3109
aVNimbahera
p3110
aVPratapgarh
p3111
aVRashmi
p3112
asVAjmer
p3113
(lp3114
VArain
p3115
aVBhinay
p3116
aVJawaja
p3117
aVKekri
p3118
aVMasooda
p3119
aVPeesangan
p3120
aVSilora (Kishangarh)
p3121
aVSrinagar
p3122
asVJhunjhunun
p3123
(lp3124
VAlsisar
p3125
aVBuhana
p3126
aVChirawa
p3127
aVJhunjhunun
p3128
aVKhetri
p3129
aVNawalgarh
p3130
aVSurajgarh
p3131
aVUdaipurwati
p3132
asVDhaulpur
p3133
(lp3134
VBari
p3135
aVBaseri
p3136
aVDhaulpur
p3137
aVRajakhera
p3138
asVBikaner
p3139
(lp3140
VBikaner
p3141
aVDungargarh
p3142
aVKhajuwala
p3143
aVKolayat
p3144
aVLunkaransar
p3145
aVNokha
p3146
asVJhalawar
p3147
(lp3148
VBakani
p3149
aVDug
p3150
aVJhalrapatan
p3151
aVKhanpur
p3152
aVManohar Thana
p3153
aVPirawa (Sunel)
p3154
asVJodhpur
p3155
(lp3156
VBalesar
p3157
aVBaori
p3158
aVBap
p3159
aVBhopalgarh
p3160
aVBilara
p3161
aVLuni
p3162
aVMandor
p3163
aVOsian
p3164
aVPhalodi
p3165
aVShergarh
p3166
asVChuru
p3167
(lp3168
VChuru
p3169
aVRajgarh
p3170
aVRatangarh
p3171
aVSardarshahar
p3172
aVSujangarh
p3173
aVTaranagar
p3174
asVTonk
p3175
(lp3176
VDeoli
p3177
aVMalpura
p3178
aVNiwai
p3179
aVTodaraisingh
p3180
aVTonk
p3181
aVUniara
p3182
asVHanumangarh
p3183
(lp3184
VBhadra
p3185
aVHanumangarh
p3186
aVNohar
p3187
aVPilibanga
p3188
aVRawatsar
p3189
aVSangaria
p3190
aVTibi
p3191
asVBharatpur
p3192
(lp3193
VBayana
p3194
aVDeeg
p3195
aVKaman
p3196
aVKumher
p3197
aVNadbai
p3198
aVNagar (Nagar Pahari)
p3199
aVRupbas
p3200
aVSewar
p3201
aVWeir
p3202
assVJammu And Kashmir
p3203
(dp3204
VDoda
p3205
(lp3206
VAssar
p3207
aVBanihal
p3208
aVBhaderwah
p3209
aVBhagwa
p3210
aVBhalessa
p3211
aVDoda
p3212
aVInderwal
p3213
aVKishtwar
p3214
aVMarwah
p3215
aVPaddar
p3216
aVRamban
p3217
aVRamsu
p3218
aVThathri
p3219
aVWarwan
p3220
asVSrinagar
p3221
(lp3222
VGanderbal
p3223
aVKangan
p3224
aVLar
p3225
aVSrinagar
p3226
asVKargil
p3227
(lp3228
VDrass
p3229
aVKargil
p3230
aVSankoo
p3231
aVShakar Chiktan
p3232
aVShargole
p3233
aVTai Suru
p3234
aVZanaskar
p3235
asVJammu
p3236
(lp3237
VAkhnoor
p3238
aVBhalwal
p3239
aVBishnah
p3240
aVDansal
p3241
aVKhour
p3242
aVMarh
p3243
aVPurmandal
p3244
aVR S Pura
p3245
aVSamba
p3246
aVSatwari
p3247
aVVijaypur
p3248
asVKupwara
p3249
(lp3250
VKalaroos
p3251
aVKarnah
p3252
aVKralpora
p3253
aVKupwara
p3254
aVLangate
p3255
aVRajwar
p3256
aVRamhal
p3257
aVSogam
p3258
aVTeetwal
p3259
aVTrehgam
p3260
aVVawoora
p3261
asVBaramulla
p3262
(lp3263
VBandipora
p3264
aVBaramulla
p3265
aVBoniyar
p3266
aVGurez
p3267
aVHajin
p3268
aVKunzer
p3269
aVPattan
p3270
aVRafiabad
p3271
aVRohama
p3272
aVSinghpora
p3273
aVSopore
p3274
aVSumbal
p3275
aVTangmarg
p3276
aVUri
p3277
aVWagoora
p3278
aVZainageer
p3279
asVAnantnag
p3280
(lp3281
VAchabal
p3282
aVBreng
p3283
aVDachnipora
p3284
aVDamhal Hanji Pora
p3285
aVKhovripora
p3286
aVKulgam
p3287
aVPahloo
p3288
aVQaimoh
p3289
aVQazigund
p3290
aVShahabad
p3291
aVShangus
p3292
asVPoonch
p3293
(lp3294
VBalakote
p3295
aVMandi
p3296
aVMendhar
p3297
aVPoonch
p3298
aVSurankote
p3299
asVUdhampur
p3300
(lp3301
VArnas
p3302
aVChenani
p3303
aVDudu
p3304
aVGhordi
p3305
aVGool
p3306
aVMahore
p3307
aVMajalta
p3308
aVPanchari
p3309
aVPouni
p3310
aVRamnagar
p3311
aVReasi
p3312
aVUdhampur
p3313
asVLeh
p3314
(lp3315
VDurbugh
p3316
aVKhalsti
p3317
aVKharu
p3318
aVLeh
p3319
aVNobra
p3320
aVNyoma
p3321
asVPulwama
p3322
(lp3323
VKakapora
p3324
aVKellar
p3325
aVPampore
p3326
aVPulwama
p3327
aVShupiyan
p3328
aVTral
p3329
asVBudgam
p3330
(lp3331
VB K Pora
p3332
aVBeerwa
p3333
aVBudgam
p3334
aVChadoora
p3335
aVKhag
p3336
aVKhan Sahib
p3337
aVNagam
p3338
aVNarbal
p3339
asVRajouri
p3340
(lp3341
VBudhal
p3342
aVDarhal
p3343
aVKalakote
p3344
aVManjakote
p3345
aVNowshera
p3346
aVRajouri
p3347
aVSunderbani
p3348
asVKathua
p3349
(lp3350
VBani
p3351
aVBarnoti
p3352
aVBasohli
p3353
aVBillawar
p3354
aVGagwal
p3355
aVHiranagar
p3356
aVKathua
p3357
aVLohi Malhar
p3358
assVChandigarh (UT)
p3359
(dp3360
VChandigarh
p3361
(lp3362
ssVWest Bengal
p3363
(dp3364
VDarjeeling
p3365
(lp3366
VDar-Pulbazar
p3367
aVGarubathan
p3368
aVJorebunglow-Sukhiapokhri
p3369
aVKalimpong-I
p3370
aVKalimpong-II
p3371
aVKurseong
p3372
aVMirik
p3373
aVRangli Rangliot
p3374
asVSouth 24-Parganas
p3375
(lp3376
VBaruipur
p3377
aVBasanti
p3378
aVBhangar-I
p3379
aVBhangar-II
p3380
aVBishnupur-I
p3381
aVBishnupur-II
p3382
aVBudge Budge-I
p3383
aVBudge Budge-II
p3384
aVCanning-I
p3385
aVCanning-II
p3386
aVDiamond-Harbour-I
p3387
aVDiamond-Harbour-II
p3388
aVFalta
p3389
aVGosaba
p3390
aVJaynagar-I
p3391
aVJaynagar-II
p3392
aVKakdwip
p3393
aVKulpi
p3394
aVKultali
p3395
aVMagrahat-I
p3396
aVMagrahat-II
p3397
aVMandirbazar
p3398
aVMathurapur-I
p3399
aVMathurapur-II
p3400
aVNamkhana
p3401
aVPatharpratima
p3402
aVSagar
p3403
aVSonarpur
p3404
aVTha-Maheshtala
p3405
asVPurulia
p3406
(lp3407
VArsha
p3408
aVBagmundi
p3409
aVBalarampur
p3410
aVBarabazar
p3411
aVBundwan
p3412
aVHura
p3413
aVJaipur
p3414
aVJhalda-I
p3415
aVJhalda-II
p3416
aVKashipur
p3417
aVManbazar-I
p3418
aVManbazar-II
p3419
aVNeturia
p3420
aVPara
p3421
aVPuncha
p3422
aVPurulia-I
p3423
aVPurulia-II
p3424
aVRaghunathpur-I
p3425
aVRaghunathpur-II
p3426
aVSanturi
p3427
asVCooch-Behar
p3428
(lp3429
VCoochbehar-I
p3430
aVCoochbehar-II
p3431
aVDinhata-I
p3432
aVDinhata-II
p3433
aVHaldibari
p3434
aVMathabhanga-I
p3435
aVMathabhanga-II
p3436
aVMekhliganj
p3437
aVSitai
p3438
aVSitalkuchi
p3439
aVTufanganj-I
p3440
aVTufanganj-II
p3441
asVSiliguri M.P.
p3442
(lp3443
VKharibari
p3444
aVMatigara
p3445
aVNaxalbari
p3446
aVPhansidewa
p3447
asVHowrah
p3448
(lp3449
VAmta-I
p3450
aVAmta-II
p3451
aVBagnan-I
p3452
aVBagnan-II
p3453
aVBallyjagacha
p3454
aVDomjur
p3455
aVJagatballavpur
p3456
aVPanchla
p3457
aVSankrail
p3458
aVShyampur-I
p3459
aVShyampur-II
p3460
aVUdaynarayanpur
p3461
aVUluberia-I
p3462
aVUluberia-II
p3463
asVAlipurduar
p3464
(lp3465
VAlipurduar-I
p3466
aVAlipurduar-II
p3467
aVKalchini
p3468
aVKumargram
p3469
aVMadarihat
p3470
aVFalakata
p3471
asVDakshin-Dinajpur
p3472
(lp3473
VBalurghat
p3474
aVBansihari
p3475
aVGangarampur
p3476
aVHarirampur
p3477
aVHili
p3478
aVKumarganj
p3479
aVKushmandi
p3480
aVTapan
p3481
asVUttardinajpur
p3482
(lp3483
VChopra
p3484
aVGoalpokhar-I
p3485
aVGoalpokhar-II
p3486
aVHemtabad
p3487
aVIslampur
p3488
aVItahar
p3489
aVKaliaganj
p3490
aVKarandighi
p3491
aVRaiganj
p3492
asVBankura
p3493
(lp3494
VBankura-I
p3495
aVBankura-II
p3496
aVBarjora
p3497
aVChatna
p3498
aVGangajalghati
p3499
aVIndpur
p3500
aVIndus
p3501
aVJaypur
p3502
aVKhatra-I
p3503
aVKhatra-II
p3504
aVKotulpur
p3505
aVMejia
p3506
aVOnda
p3507
aVPatrasayar
p3508
aVRaipur-I(Raipur)
p3509
aVRaipur-II(Sarenga)
p3510
aVRanibandh
p3511
aVSaltora
p3512
aVSimlapal
p3513
aVSonamukhi
p3514
aVTaldangra
p3515
aVVishnupur
p3516
asVHooghly
p3517
(lp3518
VArambag
p3519
aVBalagarh
p3520
aVChanditala-I
p3521
aVChanditala-II
p3522
aVChinsura-Mogra
p3523
aVDhaniakhali
p3524
aVGoghat-I
p3525
aVGoghat-II
p3526
aVHaripal
p3527
aVJangipara
p3528
aVKhanakul-I
p3529
aVKhanakul-II
p3530
aVPandua
p3531
aVPolba-Dadpur
p3532
aVPursura
p3533
aVSerampore-Uttarpara
p3534
aVSingur
p3535
aVTarakeswar
p3536
asVBurdwan
p3537
(lp3538
VAndal
p3539
aVAusgram-I
p3540
aVAusgram-II
p3541
aVBaraboni
p3542
aVBhatar
p3543
aVBurdwan-I
p3544
aVBurdwan-II
p3545
aVDurgapur-Faridpur
p3546
aVGalsi-I
p3547
aVGalsi-II
p3548
aVJamalpur
p3549
aVJamuria
p3550
aVKalna-I
p3551
aVKalna-II
p3552
aVKanksa
p3553
aVKatwa-I
p3554
aVKatwa-II
p3555
aVKetugram-I
p3556
aVKetugram-II
p3557
aVKhandaghosh
p3558
aVMemari-I
p3559
aVMemari-II
p3560
aVMongolkote
p3561
aVMonteswar
p3562
aVPandabeswar
p3563
aVPurbasthali-I
p3564
aVPurbasthali-II
p3565
aVRaina-I
p3566
aVRaina-II
p3567
aVRaniganj
p3568
aVSalanpur
p3569
asVBirbhum
p3570
(lp3571
VBolpur Sriniketan
p3572
aVDubrajpur
p3573
aVIllambazar
p3574
aVKhoyrasol
p3575
aVLabpur
p3576
aVMayureswar-I
p3577
aVMayureswar-II
p3578
aVMd.Bazar
p3579
aVMurarai-I
p3580
aVMurarai-II
p3581
aVNalhati-I
p3582
aVNalhati-II
p3583
aVNanoor
p3584
aVRajnagar
p3585
aVRampurhat-I
p3586
aVRampurhat-II
p3587
aVSainthia
p3588
aVSuri-I
p3589
aVSuri-II
p3590
asVNadia
p3591
(lp3592
VChakdaha
p3593
aVChapra
p3594
aVHanskhali
p3595
aVHaringhata
p3596
aVKaliganj
p3597
aVKarimpur-I
p3598
aVKarimpur-II
p3599
aVKrishnaganj
p3600
aVKrishnagar-I
p3601
aVKrishnagar-II
p3602
aVNabadwip
p3603
aVNakashipara
p3604
aVRanaghat-I
p3605
aVRanaghat-II
p3606
aVSantipur
p3607
aVTehatta-I
p3608
aVTehatta-II
p3609
asVNorth 24 Parganas
p3610
(lp3611
VAmdanga
p3612
aVBaduria
p3613
aVBagdah
p3614
aVBarasat II
p3615
aVBarasat-I
p3616
aVBarrackpore II
p3617
aVBarrackpore-I
p3618
aVBasirhat II
p3619
aVBasirhat-I
p3620
aVBongaon
p3621
aVDeganga
p3622
aVGaighata
p3623
aVHabra-I
p3624
aVHabra-II
p3625
aVHaroa
p3626
aVHasnabad
p3627
aVHingalganj
p3628
aVMinakhan
p3629
aVRajarhat
p3630
aVSandeshkhali-I
p3631
aVSandeshkhali-II
p3632
aVSwarupnagar
p3633
asVJalpaiguri
p3634
(lp3635
VDhupguri
p3636
aVJalpaiguri-Sadar
p3637
aVMal
p3638
aVMatiali
p3639
aVMaynaguri
p3640
aVNagrakata
p3641
aVRajganj
p3642
asVPurba Medinipur
p3643
(lp3644
VBhagwanpur I
p3645
aVBhagwanpur II
p3646
aVChandipur
p3647
aVContai I
p3648
aVContai II
p3649
aVContai III
p3650
aVEgra I
p3651
aVEgra II
p3652
aVHaldia
p3653
aVKhejuri I
p3654
aVKhejuri II
p3655
aVMahisadal
p3656
aVMoyna
p3657
aVNandakumar
p3658
aVNandigram I
p3659
aVNandigram II
p3660
aVPanskura I
p3661
aVPanskura II
p3662
aVPatashpur I
p3663
aVPatashpur II
p3664
aVRamnagar I
p3665
aVRamnagar II
p3666
aVSahid Matangini
p3667
aVSutahata
p3668
aVTamluk
p3669
asVPaschim Medinipur
p3670
(lp3671
VBinpur I
p3672
aVBinpur II
p3673
aVChandrakona I
p3674
aVChandrakona II
p3675
aVDantan I
p3676
aVDantan II
p3677
aVDaspur I
p3678
aVDaspur II
p3679
aVDebra
p3680
aVGarbeta I
p3681
aVGarbeta II
p3682
aVGarbeta III
p3683
aVGhatal
p3684
aVGopiballavpur I
p3685
aVGopiballavpur II
p3686
aVJamboni
p3687
aVJhargram
p3688
aVKeshiary
p3689
aVKeshpur
p3690
aVKharagpur I
p3691
aVKharagpur II
p3692
aVMidnapur Sadar
p3693
aVMohanpur
p3694
aVNarayangarh
p3695
aVNayagram
p3696
aVPingla
p3697
aVSabong
p3698
aVSalboni
p3699
aVSankrail
p3700
asVMalda
p3701
(lp3702
VBamongola
p3703
aVChanchal-I
p3704
aVChanchal-II
p3705
aVEnglish Bazar
p3706
aVGazole
p3707
aVHabibpur
p3708
aVHarishchandrapur-I
p3709
aVHarishchandrapur-II
p3710
aVKaliachak-I
p3711
aVKaliachak-II
p3712
aVKaliachak-IIi
p3713
aVManikchak
p3714
aVOld Malda
p3715
aVRatua-I
p3716
aVRatua-II
p3717
asVMurshidabad
p3718
(lp3719
VBeldanga I
p3720
aVBeldanga-II
p3721
aVBerhampore
p3722
aVBhagawangola I
p3723
aVBhagawangola-II
p3724
aVBharatpur-I
p3725
aVBharatpur-II
p3726
aVBurwan
p3727
aVDomkal
p3728
aVFarakka
p3729
aVHariharpara
p3730
aVJalangi
p3731
aVKandi
p3732
aVKhargram
p3733
aVLalgola
p3734
aVMsd-Jiaganj
p3735
aVNabagram
p3736
aVNowda
p3737
aVRaghunathganj-I
p3738
aVRaghunathganj-II
p3739
aVRaninagar-I
p3740
aVRaninagar-II
p3741
aVSagardighi
p3742
aVSamserganj
p3743
aVSuti-I
p3744
aVSuti-II
p3745
assVUttarakhand
p3746
(dp3747
VBageshwar
p3748
(lp3749
VBageshwar
p3750
aVGarur
p3751
aVKapkote
p3752
asVRudraprayag
p3753
(lp3754
VAugustmuni
p3755
aVJakholi
p3756
aVUkimath
p3757
asVPithoragarh
p3758
(lp3759
VBerinag
p3760
aVBin
p3761
aVDharchula
p3762
aVDidihat
p3763
aVGangolihat
p3764
aVKanalichina
p3765
aVMunakote
p3766
aVMunsyari
p3767
asVUttarkashi
p3768
(lp3769
VBhatwari
p3770
aVChinyalisaur
p3771
aVDunda
p3772
aVMori
p3773
aVNaugaon
p3774
aVPurola
p3775
asVPauri
p3776
(lp3777
VBirokhal
p3778
aVDugada
p3779
aVDwarikhal
p3780
aVEkeshwar
p3781
aVKaljikhal
p3782
aVKhirsu
p3783
aVKot
p3784
aVNainidanda
p3785
aVPabo
p3786
aVPauri
p3787
aVPokhra
p3788
aVRikhinkhal
p3789
aVThalisain
p3790
aVYamkeshwar
p3791
aVZahrikhal
p3792
asVHaridwar
p3793
(lp3794
VBahadrabad
p3795
aVBhagwanpur
p3796
aVKhanpur
p3797
aVLaksar
p3798
aVNarsan
p3799
aVRoorkee
p3800
asVDehradun
p3801
(lp3802
VChakarata
p3803
aVDoiwala
p3804
aVKalsi
p3805
aVRaipur
p3806
aVSahaspur
p3807
aVVikasnagar
p3808
asVUdham Singh Nagar
p3809
(lp3810
VBazpur
p3811
aVGaderpur
p3812
aVJaspur
p3813
aVKahatima
p3814
aVKashipur
p3815
aVRudrapur
p3816
aVSitarganj
p3817
asVAlmora
p3818
(lp3819
VBhaisiachhana
p3820
aVBhikiyasain
p3821
aVChaukhutia
p3822
aVDhauladevi
p3823
aVDwarahat
p3824
aVHawalbag
p3825
aVLamgara
p3826
aVSult
p3827
aVSyaldey
p3828
aVTakula
p3829
aVTarikhet
p3830
asVChampawat
p3831
(lp3832
VBarakot
p3833
aVChampawat
p3834
aVLohaghat
p3835
aVPati
p3836
asVChamoli
p3837
(lp3838
VDasoli
p3839
aVDewal
p3840
aVGairsain
p3841
aVGhat
p3842
aVJoshimath
p3843
aVKaranprayag
p3844
aVNarayan Bagar
p3845
aVPokhri
p3846
aVTharali
p3847
asVTehri
p3848
(lp3849
VBhailgana
p3850
aVChamba
p3851
aVDevprayag
p3852
aVJakhnidhar
p3853
aVJaunpur
p3854
aVKirti Nagar
p3855
aVNarendra Nagar
p3856
aVPratap Nagar
p3857
aVThauldhar
p3858
asVNainital
p3859
(lp3860
VBetalghat
p3861
aVBhimtal
p3862
aVDhari
p3863
aVHaldwani
p3864
aVKotabagh
p3865
aVOkalkanda
p3866
aVRamgarh
p3867
aVRamnagar
p3868
assVAndhra Pradesh
p3869
(dp3870
VHyderabad
p3871
(lp3872
VAmberpet
p3873
aVAmeerpet
p3874
aVAsifnagar
p3875
aVBahadurpura
p3876
aVBandlaguda
p3877
aVCharminar
p3878
aVGolconda
p3879
aVHimayathnagar
p3880
aVKhairthabad
p3881
aVMarredpally
p3882
aVMusheerabad
p3883
aVNampally
p3884
aVSaidabad
p3885
aVSecunderabad
p3886
aVShaikpet
p3887
aVTirmalgiry
p3888
asVWest Godavari
p3889
(lp3890
VAchanta
p3891
aVAKIVIDU
p3892
aVAttili
p3893
aVBheemavaram
p3894
aVBhimadole
p3895
aVButtayagudem
p3896
aVChagallu
p3897
aVChintalapudi
p3898
aVDenduluru
p3899
aVDevarapalle
p3900
aVDwaraka Tirumala
p3901
aVEluru
p3902
aVGanapavaram
p3903
aVGopalapuram
p3904
aVIragavaram
p3905
aVJangareddigudem
p3906
aVJeelugumilli
p3907
aVKalla
p3908
aVKamavarapukota
p3909
aVKovvur
p3910
aVKoyyalagudem
p3911
aVLingapalem
p3912
aVMogalthur
p3913
aVNallajerla
p3914
aVNarasapuram
p3915
aVNidadavole
p3916
aVNidamarru
p3917
aVPalacole
p3918
aVPalakoderu
p3919
aVPedapadu
p3920
aVPedavegi
p3921
aVPentapadu
p3922
aVPenugonda
p3923
aVPenumantra
p3924
aVPeravali
p3925
aVPoduru
p3926
aVPolavaram
p3927
aVT Narasapuram
p3928
aVTadepalligudem
p3929
aVTanuku
p3930
aVThallapudi
p3931
aVUndi
p3932
aVUndrajavaram
p3933
aVUnguturu
p3934
aVVeeravasaram
p3935
aVYelamanchili
p3936
aVKukunoor
p3937
aVVelairpad
p3938
aVBurgampadu
p3939
aVBurgampadu
p3940
asVKrishna
p3941
(lp3942
VA Konduru
p3943
aVAgiripalle
p3944
aVAvanigadda
p3945
aVBantumilli
p3946
aVBapulapadu
p3947
aVChallapalli
p3948
aVChandarlapadu
p3949
aVChatrai
p3950
aVG Konduru
p3951
aVGampalagudem
p3952
aVGannavaram
p3953
aVGhantasala
p3954
aVGudivada
p3955
aVGudlavalleru
p3956
aVGudur
p3957
aVIbrahimpatnam
p3958
aVJaggayyapeta
p3959
aVKaikalur
p3960
aVKalidindi
p3961
aVKanchika Cherla
p3962
aVKankipadu
p3963
aVKoduru
p3964
aVKruthivennu
p3965
aVMachilipatnam
p3966
aVMandavalli
p3967
aVMopidevi
p3968
aVMovva
p3969
aVMudinepalli
p3970
aVMusunuru
p3971
aVMylavaram
p3972
aVNagayalanka
p3973
aVNandigama
p3974
aVNandivada
p3975
aVNuzvid
p3976
aVPamarru
p3977
aVPamidimukkala
p3978
aVPedana
p3979
aVPedaparupudi
p3980
aVPenamaluru
p3981
aVPenuganchiprolu
p3982
aVReddigudem
p3983
aVThotlavalluru
p3984
aVTiruvuru
p3985
aVUnguturu
p3986
aVVatsavai
p3987
aVVeerullapadu
p3988
aVVijayawada Rural
p3989
aVVijayawada Urban
p3990
aVVissannapet
p3991
aVVuyyuru
p3992
asVSrikakulam
p3993
(lp3994
VAmadalavalasa
p3995
aVBhamini
p3996
aVBurja
p3997
aVEtcherla
p3998
aVGanguvari Singadam
p3999
aVGara
p4000
aVHiramandalam
p4001
aVIchchapuram
p4002
aVJalumuru
p4003
aVKanchili
p4004
aVKaviti
p4005
aVKotabommili
p4006
aVKothuru
p4007
aVL N Peta
p4008
aVLaveru
p4009
aVMandasa
p4010
aVMeilaputti
p4011
aVNandigam
p4012
aVNarasannapeta
p4013
aVPalakonda
p4014
aVPalasa
p4015
aVPathapatnam
p4016
aVPolaki
p4017
aVPonduru
p4018
aVRajam
p4019
aVRanastalam
p4020
aVRegidiamadalavalasa
p4021
aVSanthabommali
p4022
aVSanthakaviti
p4023
aVSaravakota
p4024
aVSarubujjili
p4025
aVSeethampeta
p4026
aVSompeta
p4027
aVSrikakulam
p4028
aVTekkali
p4029
aVVajrapukothuru
p4030
aVVangara
p4031
aVVeeraghattam
p4032
asVVisakhapatnam
p4033
(lp4034
VAnakapalli
p4035
aVAnandapuram
p4036
aVAnanthagiri
p4037
aVAraku Valley
p4038
aVAtchutapuram
p4039
aVBheemunipatnam
p4040
aVButchayyapeta
p4041
aVCheedikada
p4042
aVChinagadila
p4043
aVChintapalle
p4044
aVChodavaram
p4045
aVDevarapalle
p4046
aVDumbriguda
p4047
aVGajuwaka
p4048
aVGangaraju Madugula
p4049
aVGolugonda
p4050
aVGudem Kothaveedhi
p4051
aVHukumpeta
p4052
aVK Kotapadu
p4053
aVKasimkota
p4054
aVKotauratla
p4055
aVKoyyuru
p4056
aVMadugula
p4057
aVMakavarapalem
p4058
aVMunagapaka
p4059
aVMunchingiputtu
p4060
aVNakkapalli
p4061
aVNarsipatnam
p4062
aVNathavaram
p4063
aVPaderu
p4064
aVPadmanabham
p4065
aVParavada
p4066
aVPayakaraopeta
p4067
aVPedabayalu
p4068
aVPedagantyada
p4069
aVPendurthi
p4070
aVRambilli
p4071
aVRavikamatham
p4072
aVRolugunta
p4073
aVS Rayavaram
p4074
aVSabbavaram
p4075
aVVisakhapatnam
p4076
aVYelamanchili
p4077
asVChittoor
p4078
(lp4079
VB Kothakota
p4080
aVBaireddi Palle
p4081
aVBangarupalem
p4082
aVBuchinaidu Khandriga
p4083
aVChandragiri
p4084
aVChinnagottigallu
p4085
aVChittoor
p4086
aVChowdepalle
p4087
aVGangadhara Nellore
p4088
aVGangavaram
p4089
aVGudipala
p4090
aVGudupalle
p4091
aVGurramkonda
p4092
aVIrala
p4093
aVK V P Puram
p4094
aVKalakada
p4095
aVKalikiri
p4096
aVKambhamvaripalle
p4097
aVKarvetinagar
p4098
aVKuppam
p4099
aVKurabalakota
p4100
aVMandanpalle
p4101
aVMulakalacheruvu
p4102
aVNagalapuram
p4103
aVNagari
p4104
aVNarayanavanam
p4105
aVNimmanapalle
p4106
aVNindra
p4107
aVPakala
p4108
aVPalamaner
p4109
aVPalasamudram
p4110
aVPedda Panjani
p4111
aVPeddamandyam
p4112
aVPeddathippasamudram
p4113
aVPenumuru
p4114
aVPichatur
p4115
aVPileru
p4116
aVPulicherla
p4117
aVPunganur
p4118
aVPuthalapattu
p4119
aVPuttur
p4120
aVRama Kuppam
p4121
aVRamachandrapuram
p4122
aVRamasamudram
p4123
aVRenigunta
p4124
aVRompicherla
p4125
aVSanthi Puram
p4126
aVSatyavedu
p4127
aVSodam
p4128
aVSomala
p4129
aVSrikalahasti
p4130
aVSrirangarajapuram
p4131
aVThamballapalle
p4132
aVThavanampalle
p4133
aVThottambedu
p4134
aVTirupati Rural
p4135
aVTirupati Urban
p4136
aVVadamalapeta
p4137
aVVaradaiahpalem
p4138
aVVayalpad
p4139
aVVeduru Kuppam
p4140
aVVenkatagiri Kota
p4141
aVVijaya Puram
p4142
aVYadamari
p4143
aVYerpedu
p4144
aVYerravaripalem
p4145
asVEast Godavari
p4146
(lp4147
VAddateegala
p4148
aVAinavilli
p4149
aVAlamuru
p4150
aVAllavaram
p4151
aVAmalapuram
p4152
aVAmbajipeta
p4153
aVAnaparthi
p4154
aVAtreyapuram
p4155
aVBiccavolu
p4156
aVDevipatnam
p4157
aVGandepalle
p4158
aVGangavaram
p4159
aVGokavaram
p4160
aVGollaprolu
p4161
aVI Polavaram
p4162
aVJaggampeta
p4163
aVKadiam
p4164
aVKajuluru
p4165
aVKakinada (Rural)
p4166
aVKapileswarapuram
p4167
aVKarapa
p4168
aVKatrenikona
p4169
aVKirlampudi
p4170
aVKorukonda
p4171
aVKotananduru
p4172
aVKothapalli
p4173
aVKothapeta
p4174
aVMalikipuram
p4175
aVMamidikuduru
p4176
aVMandapeta
p4177
aVMaredumilli
p4178
aVMummidivaram
p4179
aVP Gannavaram
p4180
aVPamarru
p4181
aVPedapudi
p4182
aVPeddapuram
p4183
aVPithapuram
p4184
aVPrathipadu
p4185
aVRajahmundry(Rural)
p4186
aVRajanagaram
p4187
aVRajavommangi
p4188
aVRamachandrapuram
p4189
aVRampachodavaram
p4190
aVRangampeta
p4191
aVRavulapalem
p4192
aVRayavaram
p4193
aVRazole
p4194
aVSakhinetipalle
p4195
aVSamalkota
p4196
aVSankhavaram
p4197
aVSeethanagaram
p4198
aVTallarevu
p4199
aVThondangi
p4200
aVTuni
p4201
aVUppalaguptam
p4202
aVY Ramavaram
p4203
aVYeleswaram
p4204
aVChintur
p4205
aVKunavaram
p4206
aVVararamachandrapuram
p4207
aVBhadrachalam
p4208
asVPrakasam
p4209
(lp4210
VAddanki
p4211
aVArdhaveedu
p4212
aVBallikuruva
p4213
aVBestavaripeta
p4214
aVChadrasekarapuram
p4215
aVChimakurthi
p4216
aVChinaganjam
p4217
aVChirala
p4218
aVCumbum
p4219
aVDarsi
p4220
aVDonakonda
p4221
aVDornala
p4222
aVGiddaluru
p4223
aVGudluru
p4224
aVHanumanthunipadu
p4225
aVInkollu
p4226
aVJanakavarampanguluru
p4227
aVKandukur
p4228
aVKanigiri
p4229
aVKaramchedu
p4230
aVKomarolu
p4231
aVKonakanamitla
p4232
aVKondapi
p4233
aVKorisapadu
p4234
aVKothapatnam
p4235
aVKurichedu
p4236
aVLingasamudram
p4237
aVMaddipadu
p4238
aVMarkapur
p4239
aVMarripudi
p4240
aVMartur
p4241
aVMundlamuru
p4242
aVNaguluppalapadu
p4243
aVOngole
p4244
aVPamur
p4245
aVParchur
p4246
aVPedaaraveedu
p4247
aVPedacherlopalle
p4248
aVPodili
p4249
aVPonnaluru
p4250
aVPullalacheruvu
p4251
aVRacherla
p4252
aVSanthamaguluru
p4253
aVSanthanuthlapadu
p4254
aVSingarayakonda
p4255
aVTangutur
p4256
aVTarlapadu
p4257
aVThallur
p4258
aVTripuranthakam
p4259
aVUlavapadu
p4260
aVVeligandla
p4261
aVVetapalem
p4262
aVVoletivaripalem
p4263
aVYeddanapudi
p4264
aVYerragondapalem
p4265
aVZarugumilli
p4266
asVVizianagaram
p4267
(lp4268
VBadangi
p4269
aVBalijipeta
p4270
aVBhoghapuram
p4271
aVBobbili
p4272
aVBondapalle
p4273
aVCheepurupalle
p4274
aVDattirajeru
p4275
aVDenkada
p4276
aVGajapathinagaram
p4277
aVGantyada
p4278
aVGarividi
p4279
aVGarugubilli
p4280
aVGummalakshmipuram
p4281
aVGurla
p4282
aVJami
p4283
aVJiyyamma Valasa
p4284
aVKomarada
p4285
aVKothavalasa
p4286
aVKurupam
p4287
aVLakkavarapukota
p4288
aVMakkuva
p4289
aVMentada
p4290
aVMerakamudidam
p4291
aVNellimarla
p4292
aVPachipenta
p4293
aVParvathipuram
p4294
aVPusapatirega
p4295
aVRamabhadrapuram
p4296
aVSalur
p4297
aVSeethanagaram
p4298
aVSrungavarapukota
p4299
aVTherlam
p4300
aVVepada
p4301
aVVizianagaram
p4302
asVKurnool
p4303
(lp4304
VAdoni
p4305
aVAllagadda
p4306
aVAlur
p4307
aVAspari
p4308
aVAtmakur
p4309
aVBanaganapalle
p4310
aVBandi Atmakur
p4311
aVBethamcherla
p4312
aVC.Belagal
p4313
aVChagalamarri
p4314
aVChippagiri
p4315
aVDevanakonda
p4316
aVDhone
p4317
aVDornipadu
p4318
aVGadivemula
p4319
aVGonegandla
p4320
aVGospadu
p4321
aVGudur
p4322
aVHalaharvi
p4323
aVHolagunda
p4324
aVJupadu Bungalow
p4325
aVKallur
p4326
aVKodumur
p4327
aVKoilkuntla
p4328
aVKolimigundla
p4329
aVKosigi
p4330
aVKothapalle
p4331
aVKowthalam
p4332
aVKrishnagiri
p4333
aVKurnool
p4334
aVMaddikera East
p4335
aVMahanandi
p4336
aVMantralayam
p4337
aVMidthur
p4338
aVNandavaram
p4339
aVNandi Kotkur
p4340
aVNandyal
p4341
aVOrvakal
p4342
aVOwk
p4343
aVPagidyala
p4344
aVPamulapadu
p4345
aVPanyam
p4346
aVPattikonda
p4347
aVPeapally
p4348
aVPedda Kadubur
p4349
aVRudravaram
p4350
aVSanjamala
p4351
aVSirvel
p4352
aVSrisailam
p4353
aVTuggali
p4354
aVUyyalawada
p4355
aVVeldurthi
p4356
aVVelgodu
p4357
aVYemmiganur
p4358
asVGuntur
p4359
(lp4360
VAchampeta
p4361
aVAmaravathi
p4362
aVAmruthalur
p4363
aVBapatla
p4364
aVBellamkonda
p4365
aVBhattiprolu
p4366
aVBollapalle
p4367
aVChebrole
p4368
aVCherukupalle
p4369
aVChilakaluripet
p4370
aVDachepalle
p4371
aVDuggirala
p4372
aVDurgi
p4373
aVEdlapadu
p4374
aVGuntur
p4375
aVGurazala
p4376
aVIpuru
p4377
aVKakumanu
p4378
aVKarempudi
p4379
aVKarlapalem
p4380
aVKollipara
p4381
aVKollur
p4382
aVKrosuru
p4383
aVMachavaram
p4384
aVMacherla
p4385
aVMangalagiri
p4386
aVMedikonduru
p4387
aVMuppalla
p4388
aVNadendla
p4389
aVNagaram
p4390
aVNakarikallu
p4391
aVNarasaraopeta
p4392
aVNizampatnam
p4393
aVNuzendla
p4394
aVPedakakani
p4395
aVPedakurapadu
p4396
aVPedanandipadu
p4397
aVPhirangipuram
p4398
aVPiduguralla
p4399
aVPittalavanipalem
p4400
aVPonnur
p4401
aVPrathipadu
p4402
aVRajupalem
p4403
aVRentachintala
p4404
aVRepalle
p4405
aVRompicherla
p4406
aVSattenapalle
p4407
aVSavalyapuram
p4408
aVTadikonda
p4409
aVTenali
p4410
aVThadepalle
p4411
aVThullur
p4412
aVTsundur
p4413
aVVatticherukuru
p4414
aVVeldurthi
p4415
aVVemuru
p4416
aVVinukonda
p4417
asVCuddapah
p4418
(lp4419
VAtlur
p4420
aVB Kodur
p4421
aVB Mattam
p4422
aVBadvel
p4423
aVC K Dinne
p4424
aVChakrayapet
p4425
aVChapadu
p4426
aVChennur
p4427
aVChinnamandem
p4428
aVChitvel
p4429
aVCuddapah
p4430
aVDuvvur
p4431
aVGaliveedu
p4432
aVGopavaram
p4433
aVJammalamadugu
p4434
aVKalasapadu
p4435
aVKamalapuram
p4436
aVKhajipet
p4437
aVKodur
p4438
aVKondapuram
p4439
aVLakkireddipalle
p4440
aVLingala
p4441
aVMuddanur
p4442
aVMydukur
p4443
aVMylavaram
p4444
aVNandalur
p4445
aVObulavaripalle
p4446
aVPeddamudium
p4447
aVPenagaluru
p4448
aVPendlimarri
p4449
aVPorumamilla
p4450
aVProddutur
p4451
aVPulivendla
p4452
aVPullampeta
p4453
aVRajampet
p4454
aVRaju Palem
p4455
aVRamapuram
p4456
aVRayachoti
p4457
aVS A Kasinayana
p4458
aVSambepalle
p4459
aVSidhout
p4460
aVSimhadripuram
p4461
aVT Sundupalle
p4462
aVThondur
p4463
aVV N Palli
p4464
aVVallur
p4465
aVVeeraballe
p4466
aVVempalle
p4467
aVVemula
p4468
aVVontimitta
p4469
aVYerraguntla
p4470
asVNellore
p4471
(lp4472
VAllur
p4473
aVAnanthasagaram
p4474
aVAnumasamudrampeta
p4475
aVAtmakur
p4476
aVBalayapalle
p4477
aVBogole
p4478
aVButchireddipalem
p4479
aVChejerla
p4480
aVChillakur
p4481
aVChittamur
p4482
aVDagadarthi
p4483
aVDakkili
p4484
aVDoravarisatram
p4485
aVDuttalur
p4486
aVGudur
p4487
aVIndukurpet
p4488
aVJaladanki
p4489
aVKaligiri
p4490
aVKaluvoya
p4491
aVKavali
p4492
aVKodavalur
p4493
aVKondapuram
p4494
aVKota
p4495
aVKovur
p4496
aVManubolu
p4497
aVMarripadu
p4498
aVMuthukur
p4499
aVNaidupeta
p4500
aVNellore
p4501
aVOjili
p4502
aVPellakur
p4503
aVPodlakur
p4504
aVRapur
p4505
aVSangam
p4506
aVSeetharamapuram
p4507
aVSullurpeta
p4508
aVSydapuram
p4509
aVTada
p4510
aVThotapalligudur
p4511
aVUdayagiri
p4512
aVVakadu
p4513
aVVarikuntapadu
p4514
aVVenkatachalam
p4515
aVVenkatagiri
p4516
aVVidavalur
p4517
aVVinjamur
p4518
asVAnantapur
p4519
(lp4520
VAgali
p4521
aVAmadagur
p4522
aVAmarapuram
p4523
aVAnantapur
p4524
aVAtmakur
p4525
aVBathalapalle
p4526
aVBeluguppa
p4527
aVBommanahal
p4528
aVBrahmasamudram
p4529
aVBukkapatnam
p4530
aVBukkarayasamudram
p4531
aVChenne Kothapalle
p4532
aVChilamathur
p4533
aVD Hirehal
p4534
aVDharmavaram
p4535
aVGandlapenta
p4536
aVGarladinne
p4537
aVGooty
p4538
aVGorantla
p4539
aVGudibanda
p4540
aVGummagatta
p4541
aVGuntakal
p4542
aVHindupur
p4543
aVKadiri
p4544
aVKalyandurg
p4545
aVKambadur
p4546
aVKanaganapalle
p4547
aVKanekal
p4548
aVKothacheruvu
p4549
aVKudair
p4550
aVKundurpi
p4551
aVLepakshi
p4552
aVMadakasira
p4553
aVMudigubba
p4554
aVNallacheruvu
p4555
aVNallamada
p4556
aVNambulipulikunta
p4557
aVNarpala
p4558
aVObuladevaracheruvu
p4559
aVPamidi
p4560
aVParigi
p4561
aVPeddapappur
p4562
aVPeddavadugur
p4563
aVPenu Konda
p4564
aVPutlur
p4565
aVPuttaparthi
p4566
aVRamagiri
p4567
aVRaptadu
p4568
aVRayadurg
p4569
aVRoddam
p4570
aVRolla
p4571
aVSettur
p4572
aVSinganamala
p4573
aVSomandepalle
p4574
aVTadimarri
p4575
aVTadpatri
p4576
aVTalupula
p4577
aVTanakal
p4578
aVUravakonda
p4579
aVVajrakarur
p4580
aVVidapanakal
p4581
aVYadiki
p4582
aVYellanur
p4583
assVUttar Pradesh
p4584
(dp4585
VKanpur Nagar
p4586
(lp4587
VBhitargaon
p4588
aVBidhunu
p4589
aVBilhaur
p4590
aVChaubeypur
p4591
aVGhatampur
p4592
aVKakvan
p4593
aVKalyanpur
p4594
aVPatara
p4595
aVSarsaul
p4596
aVShivrajpur
p4597
asVFirozabad
p4598
(lp4599
VAika
p4600
aVAraon
p4601
aVFirozabad
p4602
aVJasrana
p4603
aVKhairgarh
p4604
aVMadanpur
p4605
aVNarkhi
p4606
aVShikohabad
p4607
aVTundla
p4608
asVFarrukhabad
p4609
(lp4610
VBadhpur
p4611
aVKaimganj
p4612
aVKamalganj
p4613
aVMohammadabad
p4614
aVNawabganj
p4615
aVRajepur
p4616
aVShamashabad
p4617
asVMuzaffarnagar
p4618
(lp4619
VBaghra
p4620
aVBudhana
p4621
aVCharthawal
p4622
aVJansath
p4623
aVKhatauli
p4624
aVMorna
p4625
aVMuzaffarnagar
p4626
aVPurkazi
p4627
aVSahapur
p4628
asVVaranasi
p4629
(lp4630
VArazeeline
p4631
aVBaragaon
p4632
aVChiraigaon
p4633
aVCholapur
p4634
aVHarahua
p4635
aVKashividyapith
p4636
aVPindra
p4637
aVSewapuri
p4638
asVChitrakoot
p4639
(lp4640
VChitrakoot
p4641
aVManikpur
p4642
aVMau
p4643
aVPahari
p4644
aVRamnagar
p4645
asVMainpuri
p4646
(lp4647
VBarnahal
p4648
aVBewar
p4649
aVGhiror
p4650
aVJagir
p4651
aVKarhal
p4652
aVKishni
p4653
aVKurawali
p4654
aVMainpuri
p4655
aVSultanganj
p4656
asVKasganj
p4657
(lp4658
VPatiyali
p4659
aVGanjdundwara
p4660
aVSidhpura
p4661
aVAmanpur
p4662
aVSoron
p4663
aVSahawar
p4664
aVKasganj
p4665
asVLakhimpur-Kherii
p4666
(lp4667
VBankeyganj
p4668
aVBehjam
p4669
aVBijuwa
p4670
aVDhaurahara
p4671
aVIsanager
p4672
aVKumbhi / Gola
p4673
aVLakhimpur
p4674
aVMitauli
p4675
aVMohammdi
p4676
aVNakaha
p4677
aVNighasan
p4678
aVPaliya
p4679
aVPasgawan
p4680
aVPhoolbehar
p4681
aVRamia Behar
p4682
asVShravasti
p4683
(lp4684
VGilaula
p4685
aVHarriharpur Rani
p4686
aVIkauna
p4687
aVJamunha
p4688
aVPayagpur
p4689
aVSirsia
p4690
aVVisheshwarganj
p4691
asVBaghpat
p4692
(lp4693
VBaghpat
p4694
aVBaraut
p4695
aVBinauli
p4696
aVChhaprauli
p4697
aVKhekra
p4698
aVPilana
p4699
asVChandauli
p4700
(lp4701
VBarahani
p4702
aVChahania
p4703
aVChakiya
p4704
aVChandauli
p4705
aVDhanapur
p4706
aVNaugarh
p4707
aVNiyamatabad
p4708
aVSakaldiha
p4709
aVShahabganj
p4710
asVPilibhit
p4711
(lp4712
VAmaria
p4713
aVBarkhera
p4714
aVBilsanda
p4715
aVBisalpur
p4716
aVLalauri Khera
p4717
aVMarauri
p4718
aVPuranpur
p4719
asVMahoba
p4720
(lp4721
VCharkhari
p4722
aVJaitpur
p4723
aVKabarai
p4724
aVPanwari
p4725
asVBareilly
p4726
(lp4727
VAlampur Jafrabad
p4728
aVBaheri
p4729
aVBhadhpura
p4730
aVBhojipura
p4731
aVBhuta
p4732
aVBithri Chainpur
p4733
aVDamkhoda
p4734
aVFaridpur
p4735
aVFatehganj(West)
p4736
aVKiyara
p4737
aVMajhgawan
p4738
aVMeerganj
p4739
aVNawabganj
p4740
aVRamnager
p4741
aVShergrah
p4742
asVKannauj
p4743
(lp4744
VChibramau
p4745
aVHaseran
p4746
aVJalalabad
p4747
aVKannauj
p4748
aVNil
p4749
aVSaurikh
p4750
aVTalgram
p4751
aVUmarda
p4752
asVEtah
p4753
(lp4754
VAliganj
p4755
aVAwagarh
p4756
aVJaithra
p4757
aVJalesar
p4758
aVMarhara
p4759
aVNidhauli Kalan
p4760
aVSakit
p4761
aVSheetalpur
p4762
asVBasti
p4763
(lp4764
VBahadurpur
p4765
aVBankati
p4766
aVBasti Sadar
p4767
aVGaur
p4768
aVHarraiya
p4769
aVKaptan Ganj
p4770
aVKudraha
p4771
aVParasurampur
p4772
aVRam Nagar
p4773
aVRudhauli
p4774
aVSaltauwa Gopalpur
p4775
aVSaun Ghat
p4776
aVVikramjot
p4777
asVFaizabad
p4778
(lp4779
VAmaniganj
p4780
aVBikapur
p4781
aVHaringtonganj
p4782
aVMasodha
p4783
aVMawai
p4784
aVMaya Bazar
p4785
aVMilkipur
p4786
aVPura Bazar
p4787
aVRudauli
p4788
aVSohawal
p4789
aVTarun
p4790
asVBadaun
p4791
(lp4792
VAmbiapur
p4793
aVAsafpur
p4794
aVBisauli
p4795
aVDataganj
p4796
aVDehagawan
p4797
aVIslamnagar
p4798
aVJagat
p4799
aVMiaon
p4800
aVQuaderchowk
p4801
aVSahaswan
p4802
aVSalarpur
p4803
aVSamrer
p4804
aVUjhani
p4805
aVUsawan
p4806
aVWazirganj
p4807
asVBarabanki
p4808
(lp4809
VBanikoder
p4810
aVBanki
p4811
aVDariyabad
p4812
aVDewa
p4813
aVFatehpur
p4814
aVHaidergarh
p4815
aVHarakh
p4816
aVMasauli
p4817
aVNidura
p4818
aVPuredalai
p4819
aVRam Nagar
p4820
aVSiddhaur
p4821
aVSirauli Gauspur
p4822
aVSuratganj
p4823
aVTrivediganj
p4824
asVAmbedkarnagar
p4825
(lp4826
VAkbarpur
p4827
aVBaskhari
p4828
aVBhiti
p4829
aVBhiyaun
p4830
aVJahagirganj
p4831
aVJalalpur
p4832
aVKatehari
p4833
aVRamnagar
p4834
aVTanda
p4835
asVMau
p4836
(lp4837
VBadraon
p4838
aVDohrighat
p4839
aVFatehpur Mandaon
p4840
aVGhosi
p4841
aVKopaganj
p4842
aVMohammdabad
p4843
aVPardaha
p4844
aVRanipur
p4845
aVRattanpura
p4846
asVLucknow
p4847
(lp4848
VBakshi Ka Talab
p4849
aVChinhat
p4850
aVGosaiganj
p4851
aVKakori
p4852
aVMalihabad
p4853
aVMall
p4854
aVMohanlalganj
p4855
aVSarojininagar
p4856
asVAmethi
p4857
(lp4858
VAmethi
p4859
aVBhetua
p4860
aVBhadar
p4861
aVSangrampur
p4862
aVGauriganj
p4863
aVJamo
p4864
aVShahgarh
p4865
aVJagdishpur
p4866
aVBazar Shukla
p4867
aVMusafirkhana
p4868
aVTiloi
p4869
aVBahadurpur
p4870
aVSinghpur
p4871
asVSitapur
p4872
(lp4873
VAliya
p4874
aVBehta
p4875
aVBiswan
p4876
aVGondlamau
p4877
aVHargaon
p4878
aVKasmanda
p4879
aVKhairabad
p4880
aVLaharpur
p4881
aVMachrehta
p4882
aVMahmoodabad
p4883
aVMaholi
p4884
aVMishrikh
p4885
aVPahla
p4886
aVParsendi
p4887
aVPisawan
p4888
aVRampurmathura
p4889
aVReosa
p4890
aVSakran
p4891
aVSidhauli
p4892
asVLalitpur
p4893
(lp4894
VBar
p4895
aVBirdha
p4896
aVJakhora
p4897
aVMadawara
p4898
aVMahroni
p4899
aVTalbehat
p4900
asVPratapgarh
p4901
(lp4902
VAspur Deosara
p4903
aVBabaganj
p4904
aVBihar
p4905
aVGaura
p4906
aVKalakankar
p4907
aVKunda
p4908
aVLalganj
p4909
aVLaxmanpur
p4910
aVMandhata
p4911
aVMangraura
p4912
aVPatti
p4913
aVRampur Sangramgarh
p4914
aVSadar
p4915
aVSandwa Chandika
p4916
aVSangipur
p4917
aVShivgarh
p4918
asVSiddharathnagar
p4919
(lp4920
VBaansi
p4921
aVBarhni
p4922
aVBhanwapur
p4923
aVBirdpur
p4924
aVDumariaganj
p4925
aVItwa
p4926
aVJogiya
p4927
aVKhesraha
p4928
aVKuhniyaon
p4929
aVMithwal
p4930
aVNaugarh
p4931
aVShohratgarh
p4932
aVUska
p4933
asVMathura
p4934
(lp4935
VBaldev
p4936
aVChata
p4937
aVChaumuha
p4938
aVFarah
p4939
aVGoverdhan
p4940
aVManth
p4941
aVMathura
p4942
aVNahjheel
p4943
aVNandgaon
p4944
aVRaya
p4945
asVUnnao
p4946
(lp4947
VAsoha
p4948
aVAuras
p4949
aVBangarmau
p4950
aVBichchiya
p4951
aVBighapur
p4952
aVFatehpur - 84
p4953
aVGanj Muradabad
p4954
aVHasanganj
p4955
aVHilauli
p4956
aVMiyaganj
p4957
aVNawabganj
p4958
aVPurwa
p4959
aVSafipur
p4960
aVSikandarpsur Karan
p4961
aVSikrandarpur Sirosi
p4962
aVSumerpur
p4963
asVG.B. Nagar
p4964
(lp4965
VBisrakh
p4966
aVDadri
p4967
aVDankaur
p4968
aVJewar
p4969
asVRampur
p4970
(lp4971
VBilaspur
p4972
aVChamrawa
p4973
aVMilak
p4974
aVSaidnagar
p4975
aVShahbad
p4976
aVSuar
p4977
asVAllahabad
p4978
(lp4979
VBahadurpur
p4980
aVBaharia
p4981
aVChaka
p4982
aVDhanupur
p4983
aVHandia
p4984
aVHolagarh
p4985
aVJasra
p4986
aVKarchhana
p4987
aVKaudihar
p4988
aVKaundhiyara
p4989
aVKoraon
p4990
aVManda
p4991
aVMau Aima
p4992
aVMeza
p4993
aVPhoolpur
p4994
aVPratappur
p4995
aVSaidabad
p4996
aVShankergarh
p4997
aVSoraon
p4998
aVUrua
p4999
asVHardoi
p5000
(lp5001
VAhrori
p5002
aVBawan
p5003
aVBehndar
p5004
aVBharawan
p5005
aVBharkhani
p5006
aVBilgram
p5007
aVHarpal Pur
p5008
aVHaryawan
p5009
aVKachhauna
p5010
aVKothawan
p5011
aVMadhoganj
p5012
aVMallawan
p5013
aVPihani
p5014
aVSandi
p5015
aVSandila
p5016
aVShahbad
p5017
aVSursa
p5018
aVTandiyawan
p5019
aVTodarpur
p5020
asVBahraich
p5021
(lp5022
VBalha
p5023
aVChittaura
p5024
aVFakharpur
p5025
aVHuzoorpur
p5026
aVJarwal
p5027
aVKaisarganj
p5028
aVMahasi
p5029
aVMihinpurwa
p5030
aVNawabganj
p5031
aVPayagpur
p5032
aVRisia
p5033
aVShivpur
p5034
aVTejwapur
p5035
aVVisheshwarganj
p5036
asVBanda
p5037
(lp5038
VBaberu
p5039
aVBadokhar Khurd
p5040
aVBisanda
p5041
aVJaspura
p5042
aVKamasin
p5043
aVMahua
p5044
aVNaraini
p5045
aVTindwari
p5046
asVS.R. Nagar(Bhadohi)
p5047
(lp5048
VAurai
p5049
aVBhadoi
p5050
aVDeagh
p5051
aVGyanpur
p5052
aVSuriyawan
p5053
asVKanpur Dehat
p5054
(lp5055
VAkabarpur
p5056
aVAmraudha
p5057
aVDerapur
p5058
aVJhinjhak
p5059
aVMaitha
p5060
aVMalasa
p5061
aVRajpur
p5062
aVRasoolabad
p5063
aVSandalpur
p5064
aVSarwan Khera
p5065
asVSultanpur
p5066
(lp5067
VAkhandnagar
p5068
aVBaldirai
p5069
aVBhadaiya
p5070
aVDanpatganj
p5071
aVDostpur
p5072
aVDuvepur
p5073
aVJaisinghpur
p5074
aVKadipur
p5075
aVKurebhar
p5076
aVKurwar
p5077
aVLambhua
p5078
aVMotigarpur
p5079
aVPartapur Kamaicha
p5080
asVMirzapur
p5081
(lp5082
VChhanbey
p5083
aVHallia
p5084
aVJamalpur
p5085
aVKon
p5086
aVLalganj
p5087
aVMadihan
p5088
aVMajhawa
p5089
aVNagar (City)
p5090
aVNarainpur
p5091
aVPahadi
p5092
aVRaj Garh
p5093
aVSikhar
p5094
asVAuraiya
p5095
(lp5096
VAchalda
p5097
aVAjit Mal
p5098
aVArwa Katra
p5099
aVAuraiya
p5100
aVBhagaya Nagar
p5101
aVBidhuna
p5102
aVSahar
p5103
asVHathras
p5104
(lp5105
VHasayan
p5106
aVHathras
p5107
aVMursan
p5108
aVSadabad
p5109
aVSahpau
p5110
aVSasani
p5111
aVSikendra-Rao
p5112
asVGonda
p5113
(lp5114
VBabhanjot
p5115
aVBelsar
p5116
aVChhapiya
p5117
aVColonelganj
p5118
aVHaldharmau
p5119
aVIntiyathok
p5120
aVJhanijhri
p5121
aVKatrabazar
p5122
aVMankapur
p5123
aVMujehna
p5124
aVNawabganj
p5125
aVPandari Kripal
p5126
aVParaspur
p5127
aVRupaiyeedeeh
p5128
aVTarabganj
p5129
aVWazeer Ganj
p5130
asVAzamgarh
p5131
(lp5132
VAhiraula
p5133
aVAtrauliya
p5134
aVAzamatgarh
p5135
aVBilariyaganj
p5136
aVHaraya
p5137
aVJahanaganj
p5138
aVKoyalasa
p5139
aVLalganj
p5140
aVMahrajganj
p5141
aVMartinganj
p5142
aVMehnagar
p5143
aVMirzapur
p5144
aVMohammadpur
p5145
aVPalhani
p5146
aVPalhna
p5147
aVPawai
p5148
aVPhoolpur
p5149
aVRani Ki Sarai
p5150
aVSathiyaon
p5151
aVTahbarpur
p5152
aVTarwa
p5153
aVThekma
p5154
asVMeerut
p5155
(lp5156
VDaurala
p5157
aVHastinapur
p5158
aVJani Khurd
p5159
aVKharkhoda
p5160
aVMachhra
p5161
aVMawana
p5162
aVMeerut
p5163
aVParikshatgarh
p5164
aVRajpura
p5165
aVRasoolpur Rhota
p5166
aVSardhana
p5167
aVSaroorpur
p5168
asVFatehpur
p5169
(lp5170
VAirayan
p5171
aVAmauli
p5172
aVAshother
p5173
aVBahuwa
p5174
aVBhitaura
p5175
aVDevmai
p5176
aVDhata
p5177
aVHaswa
p5178
aVHathgaon
p5179
aVKhajuha
p5180
aVMalwan
p5181
aVTeliyani
p5182
aVVijaipur
p5183
asVBijnor
p5184
(lp5185
VAfzalgarh
p5186
aVDhampur
p5187
aVHaldaur
p5188
aVJalilpur
p5189
aVKiratpur
p5190
aVKotwali
p5191
aVMohd. Pur Deomal
p5192
aVNajibabad
p5193
aVNehtaur
p5194
aVNoorpur
p5195
aVSeohara
p5196
asVSaharanpur
p5197
(lp5198
VBaliakheri
p5199
aVDeoband
p5200
aVGangoh
p5201
aVMuzaffarabad
p5202
aVNagal
p5203
aVNakur
p5204
aVNanauta
p5205
aVPuwarka
p5206
aVRampur Maniharan
p5207
aVSadholi Quadim
p5208
aVSarsawa
p5209
asVBalrampur
p5210
(lp5211
VBalrampur
p5212
aVGainsari
p5213
aVGendas Buzurg
p5214
aVHarraiya Satgharwa
p5215
aVPachpedwa
p5216
aVRehra
p5217
aVSriduttganj
p5218
aVTulsipur
p5219
aVUtraula
p5220
asVMoradabad
p5221
(lp5222
VBhagatpur Tanda
p5223
aVBilari
p5224
aVChhajlet
p5225
aVDilari
p5226
aVDingarpur
p5227
aVMoradabad
p5228
aVMundapandey
p5229
aVThakurdwara
p5230
asVRae Bareli
p5231
(lp5232
VAmawan
p5233
aVBachharawan
p5234
aVChhatoh
p5235
aVDalmau
p5236
aVDeenshah Gaura
p5237
aVDih
p5238
aVHarchandpur
p5239
aVJagatpur
p5240
aVKheron
p5241
aVLalganj
p5242
aVMahrajganj
p5243
aVRahi
p5244
aVRohania
p5245
aVSalon
p5246
aVSaraini
p5247
aVSatawan
p5248
aVSheogarh
p5249
aVUnchahar
p5250
asVShamli
p5251
(lp5252
VShamli
p5253
aVKairana
p5254
aVKandhala
p5255
aVThanabhawan
p5256
aVUn
p5257
asVKaushambi
p5258
(lp5259
VChail
p5260
aVKara
p5261
aVKaushambi
p5262
aVManjhanpur
p5263
aVMooratganj
p5264
aVNewada
p5265
aVSarsawan
p5266
aVSirathu
p5267
asVHapur
p5268
(lp5269
VGarhmukteshwar
p5270
aVSimbhawali
p5271
aVHapur
p5272
aVDhaulana
p5273
asVMaharajganj
p5274
(lp5275
VBrijmanganj
p5276
aVDhani
p5277
aVGughali
p5278
aVLaxmipur
p5279
aVMaharajganj
p5280
aVMithaura
p5281
aVNautanwa
p5282
aVNichlaul
p5283
aVPaniyara
p5284
aVPartawal
p5285
aVPharenda
p5286
aVSiswa
p5287
asVHamirpur
p5288
(lp5289
VGohand
p5290
aVKurara
p5291
aVMaudaha
p5292
aVMuskara
p5293
aVRath
p5294
aVSarila
p5295
aVSumerpur
p5296
asVJalaun
p5297
(lp5298
VDakor
p5299
aVJalaun
p5300
aVKadaura
p5301
aVKonch
p5302
aVKuthond
p5303
aVMadhogarh
p5304
aVMahewa
p5305
aVNadigaon
p5306
aVRampura
p5307
asVKushinagar
p5308
(lp5309
VDudhai
p5310
aVFazil Nagar
p5311
aVHata
p5312
aVKaptanganj
p5313
aVKasiya
p5314
aVKhadda
p5315
aVMoti Chak
p5316
aVNebuwa Naurangiya
p5317
aVPadrauna
p5318
aVRamkola
p5319
aVSeorahi
p5320
aVSukrauli
p5321
aVTamkuhi
p5322
aVVisunpura
p5323
asVSonebhadra
p5324
(lp5325
VBabhani
p5326
aVChatra
p5327
aVChopan
p5328
aVDuddhi
p5329
aVGhorawal
p5330
aVMyorepur
p5331
aVNagwa
p5332
aVRobertsganj
p5333
asVGorakhpur
p5334
(lp5335
VBansgaon
p5336
aVBarhalganj
p5337
aVBelghat
p5338
aVBhathat
p5339
aVBrahmpur
p5340
aVCampierganj
p5341
aVChargawan
p5342
aVGagha
p5343
aVGola
p5344
aVJungle Kaudia
p5345
aVKauri Ram
p5346
aVKhajani
p5347
aVKhorabar
p5348
aVPali
p5349
aVPipraich
p5350
aVPiprauli
p5351
aVSahjanwa
p5352
aVSardarnagar
p5353
aVUrwa
p5354
asVJaunpur
p5355
(lp5356
VBadalapur
p5357
aVBarsathi
p5358
aVBuxa
p5359
aVDharmapur
p5360
aVDobhi
p5361
aVJalalpur
p5362
aVKaranja Kala
p5363
aVKerakat
p5364
aVKhutahan
p5365
aVMachhali Shahar
p5366
aVMaharajganj
p5367
aVMariyahun
p5368
aVMuftiganj
p5369
aVMungra Badshapur
p5370
aVRam Nagar
p5371
aVRampur
p5372
aVShahganj
p5373
aVSikrara
p5374
aVSirkoni
p5375
aVSuitha Kala
p5376
aVSujanganj
p5377
asVGhaziabad
p5378
(lp5379
VBhojpur
p5380
aVLoni
p5381
aVMuradnagar
p5382
aVRajapur
p5383
asVDeoria
p5384
(lp5385
VBaitalpur
p5386
aVBankata
p5387
aVBerhaj
p5388
aVBhagalpur
p5389
aVBhaluani
p5390
aVBhatni
p5391
aVBhatpar Rani
p5392
aVDeoria Sadar
p5393
aVDeshi Deoria
p5394
aVGouri Bazar
p5395
aVLar
p5396
aVPatherdeva
p5397
aVRampur Karkhana
p5398
aVRudrapur
p5399
aVSelempur
p5400
aVTARKULWA
p5401
asVShahjahanpur
p5402
(lp5403
VBanda
p5404
aVBhawal Khera
p5405
aVDadraul
p5406
aVJalalabad
p5407
aVJatipur
p5408
aVKalan
p5409
aVKanth
p5410
aVKatra Khudaganj
p5411
aVKhuttar
p5412
aVMadnapur
p5413
aVMirzapur
p5414
aVNigohi
p5415
aVPowayan
p5416
aVSindhauli
p5417
aVTilhar
p5418
asVSambhal
p5419
(lp5420
VSambhal
p5421
aVBahjoi
p5422
aVPawansa
p5423
aVAsmoli
p5424
aVBaniyakhera
p5425
aVGunnaur
p5426
aVJunawai
p5427
aVRajpura
p5428
asVEtawah
p5429
(lp5430
VBarhpura
p5431
aVBasrehar
p5432
aVBharthana
p5433
aVChakarnagar
p5434
aVJaswantnagar
p5435
aVMahewah
p5436
aVSaifai
p5437
aVTakha
p5438
asVBallia
p5439
(lp5440
VBairia
p5441
aVBansdih
p5442
aVBelhari
p5443
aVBeruarbari
p5444
aVChilkahar
p5445
aVDubhar
p5446
aVGadwar
p5447
aVHanumanganj
p5448
aVManiar
p5449
aVMurlichhapra
p5450
aVNagra
p5451
aVNawanagar
p5452
aVPandah
p5453
aVRasda
p5454
aVReoti
p5455
aVSear
p5456
aVShohaon
p5457
asVS.K. Nagar
p5458
(lp5459
VBaghauli
p5460
aVBelhar Kala
p5461
aVHaisar Bazar
p5462
aVKhalilabad
p5463
aVMehdawal
p5464
aVNath Nagar
p5465
aVPauli
p5466
aVSamariyawan
p5467
aVSantha
p5468
asVAligarh
p5469
(lp5470
VAkrabad
p5471
aVAtrauli
p5472
aVBijauli
p5473
aVChandosh
p5474
aVDhanipur
p5475
aVGangiri
p5476
aVGonda
p5477
aVIglas
p5478
aVJawan
p5479
aVKhair
p5480
aVLodha
p5481
aVTappal
p5482
asVBulandshahr
p5483
(lp5484
VAgauta
p5485
aVAnoopshahr
p5486
aVAraniya
p5487
aVB.B.Nagar
p5488
aVBulandshahr
p5489
aVDanpur
p5490
aVDebai
p5491
aVGulawathi
p5492
aVJhangirabad
p5493
aVKhurja
p5494
aVLakhawati
p5495
aVPahasu
p5496
aVShikarpur
p5497
aVSikandrabad
p5498
aVSyana
p5499
aVUnchagaon
p5500
asVJ.B.F.Nagar
p5501
(lp5502
VAmroha
p5503
aVDhanaura
p5504
aVGajraula
p5505
aVGangeshwari
p5506
aVHasanpur
p5507
aVJoya
p5508
asVJhansi
p5509
(lp5510
VBabina
p5511
aVBadagaon
p5512
aVBamaur
p5513
aVBangra
p5514
aVChirgaon
p5515
aVGursarai
p5516
aVMauranipur
p5517
aVMoth
p5518
asVGhazipur
p5519
(lp5520
VBarachawar
p5521
aVBhadaura
p5522
aVBhawarkol
p5523
aVBirano
p5524
aVDeokali
p5525
aVGhazipur (Sadar)
p5526
aVJakhania
p5527
aVJamania
p5528
aVKaranda
p5529
aVKasimabad
p5530
aVManihari
p5531
aVMaradah
p5532
aVMuhammadabad
p5533
aVReotipur
p5534
aVSadat
p5535
aVSaidpur
p5536
asVAgra
p5537
(lp5538
VAchhnera
p5539
aVAkola
p5540
aVBah
p5541
aVBarauli Ahir
p5542
aVBichpuri
p5543
aVEtmadpur
p5544
aVFatehabad
p5545
aVFatehpur Sikri
p5546
aVJagner
p5547
aVJaitpur Kalan
p5548
aVKhandauli
p5549
aVKheragarh
p5550
aVPinahat
p5551
aVSaiyan
p5552
aVShamsabad
p5553
assVHimachal Pradesh
p5554
(dp5555
VHamirpur
p5556
(lp5557
VBhoranj
p5558
aVBijhri
p5559
aVHamirpur
p5560
aVNadaun
p5561
aVTauni Devi
p5562
aVTihra Sujanpur
p5563
asVKullu
p5564
(lp5565
VAnni
p5566
aVBanjar
p5567
aVKullu
p5568
aVNaggar
p5569
aVNirmand
p5570
asVShimla
p5571
(lp5572
VBasantpur
p5573
aVChauhara
p5574
aVChopal
p5575
aVJubbal and Kothai
p5576
aVMashobra
p5577
aVNarkanda
p5578
aVRampur
p5579
aVRohru
p5580
aVTheog
p5581
asVSirmaur
p5582
(lp5583
VNahan
p5584
aVPachhad
p5585
aVPaonta Sahib
p5586
aVRajgarh
p5587
aVSangrah
p5588
aVShillai
p5589
asVChamba
p5590
(lp5591
VBharmour
p5592
aVBhattiyat
p5593
aVChamba
p5594
aVMehla
p5595
aVPangi
p5596
aVSalooni
p5597
aVTissa
p5598
asVLahul And Spiti
p5599
(lp5600
VLahaul
p5601
aVSpiti
p5602
asVUna
p5603
(lp5604
VAmb
p5605
aVDhundla
p5606
aVGagret
p5607
aVHaroli
p5608
aVUna
p5609
asVBilaspur
p5610
(lp5611
VBilaspur Sadar
p5612
aVGehrwin
p5613
aVGhumarwin
p5614
asVKangra
p5615
(lp5616
VBaijnath
p5617
aVBhawarna
p5618
aVDehra Gopipur
p5619
aVFatehpur
p5620
aVIndora
p5621
aVKangra
p5622
aVLamba Gaon
p5623
aVNagrota Bagwan
p5624
aVNagrota Surian
p5625
aVNurpur
p5626
aVPanchrukhi
p5627
aVPragpur
p5628
aVRait
p5629
aVSullah (Bhedu Mahadev)
p5630
asVKinnaur
p5631
(lp5632
VKalpa
p5633
aVNichar
p5634
aVPooh
p5635
asVMandi
p5636
(lp5637
VBalh
p5638
aVChachiot
p5639
aVChauntra
p5640
aVDharampur
p5641
aVDrang
p5642
aVGopalpur
p5643
aVKarsog
p5644
aVMandi Sadar
p5645
aVSeraj
p5646
aVSunder Nagar
p5647
asVSolan
p5648
(lp5649
VDharampur
p5650
aVKandaghat
p5651
aVKunihar
p5652
aVNalagarh
p5653
aVSolan
p5654
assVDelhi (UT)
p5655
(dp5656
VDelhi
p5657
(lp5658
ssVPondicherry (UT)
p5659
(dp5660
sVGujarat
p5661
(dp5662
VBhavnagar
p5663
(lp5664
VBhavnagar
p5665
aVBotad
p5666
aVGadhada
p5667
aVGariyadhar
p5668
aVGhogha
p5669
aVMahuva
p5670
aVPalitana
p5671
aVSihor
p5672
aVTalaja
p5673
aVUmarala
p5674
aVVallbhipur
p5675
asVVadodara
p5676
(lp5677
VChhotaudepur
p5678
aVDabhoi
p5679
aVJetpur Pavi
p5680
aVKarjan
p5681
aVKawant
p5682
aVNaswadi
p5683
aVPadra
p5684
aVSankheda
p5685
aVSavli
p5686
aVSinor
p5687
aVVadodara
p5688
aVWaghodia
p5689
asVPanchmahals
p5690
(lp5691
VGhoghamba
p5692
aVGodhra.
p5693
aVHalol
p5694
aVJambughoda
p5695
aVKadana
p5696
aVKalol
p5697
aVKhanpur
p5698
aVLunawada
p5699
aVMorva (Hadaf)
p5700
aVSantrampur
p5701
aVShahera.
p5702
asVJamnagar
p5703
(lp5704
VBhanwad
p5705
aVDhrol
p5706
aVJamjodhpur
p5707
aVJamnagar
p5708
aVJodiya
p5709
aVKalavad
p5710
aVKalyanpur
p5711
aVKhambhalia
p5712
aVLalpur
p5713
aVOkhamandal Dwarka
p5714
asVJunagadh
p5715
(lp5716
VBhesan
p5717
aVJunagadh
p5718
aVKeshod
p5719
aVKodinar
p5720
aVMalia
p5721
aVManavadar
p5722
aVMangrol
p5723
aVMendarda
p5724
aVSutrapada
p5725
aVTalala
p5726
aVUna
p5727
aVVanthali
p5728
aVVeraval
p5729
aVVisavadar
p5730
asVTapi
p5731
(lp5732
VNizar
p5733
aVSongadh
p5734
aVUchchhal
p5735
aVValod
p5736
aVVyara
p5737
asVNavsari
p5738
(lp5739
VChikhli
p5740
aVGandevi
p5741
aVJalalpor
p5742
aVNavsari
p5743
aVVansda
p5744
asVRajkot
p5745
(lp5746
VDhoraji
p5747
aVGondal
p5748
aVJamkandorana
p5749
aVJasdan
p5750
aVJetpur
p5751
aVKotda Sangani
p5752
aVLodhika
p5753
aVMaliya Miyana
p5754
aVMorbi
p5755
aVPaddhari
p5756
aVRajkot
p5757
aVTankara
p5758
aVUpleta
p5759
aVWankaner
p5760
asVDahod
p5761
(lp5762
VDahod
p5763
aVDevgadhbaria
p5764
aVDhanpur
p5765
aVFatepura
p5766
aVGarabada
p5767
aVJhalod
p5768
aVLimkheda
p5769
asVPorbandar
p5770
(lp5771
VKutiyana
p5772
aVPorbandar
p5773
aVRanavav
p5774
asVAhmedabad
p5775
(lp5776
VAhmedabad (City)
p5777
aVBarwala
p5778
aVBavla
p5779
aVDascroi
p5780
aVDetroj
p5781
aVDhandhuka
p5782
aVDholka
p5783
aVMandal
p5784
aVRanpur
p5785
aVSanand
p5786
aVViramgam
p5787
asVKheda
p5788
(lp5789
VBalasinor
p5790
aVKapadwanj
p5791
aVKathlal
p5792
aVKheda
p5793
aVMahemdavad
p5794
aVMahudha
p5795
aVMatar
p5796
aVNadiad
p5797
aVThasra
p5798
aVVirpur
p5799
asVNarmada
p5800
(lp5801
VDediapada
p5802
aVNandod
p5803
aVSagbara
p5804
aVTilakwada
p5805
asVAmreli
p5806
(lp5807
VAmreli
p5808
aVBabara
p5809
aVBagasara
p5810
aVDhari
p5811
aVJafrabad
p5812
aVKhambha
p5813
aVKunkavav
p5814
aVLathi
p5815
aVLiliya
p5816
aVRajula
p5817
aVSavarkundla
p5818
asVSurat
p5819
(lp5820
VBardoli
p5821
aVChoryasi
p5822
aVCity Surat
p5823
aVKamrej
p5824
aVMahuwa
p5825
aVMandvi
p5826
aVMangrol
p5827
aVOlpad
p5828
aVPalsana
p5829
aVUmarpada
p5830
asVBharuch
p5831
(lp5832
VAmod
p5833
aVAnkleshwar
p5834
aVBharuch
p5835
aVHansot
p5836
aVJambusar
p5837
aVJhagadia
p5838
aVValia
p5839
aVWagra
p5840
asVSabarkantha
p5841
(lp5842
VBayad
p5843
aVBhiloda
p5844
aVDhansura
p5845
aVHimatnagar
p5846
aVIdar
p5847
aVKhedbrahma
p5848
aVMalpur
p5849
aVMeghraj
p5850
aVModasa
p5851
aVPrantij
p5852
aVTalod
p5853
aVVadali
p5854
aVVijaynagar
p5855
asVKutch
p5856
(lp5857
VAbadasa
p5858
aVAnjar
p5859
aVBhachau
p5860
aVBhuj
p5861
aVGandhidham
p5862
aVLakhpat
p5863
aVMandvi
p5864
aVMundra
p5865
aVNakhatrana
p5866
aVRapar
p5867
asVValsad
p5868
(lp5869
VDharampur
p5870
aVKaparada
p5871
aVPardi
p5872
aVUmbergam
p5873
aVValsad
p5874
asVDangs
p5875
(lp5876
VDangs
p5877
asVSurendranagar
p5878
(lp5879
VChotila
p5880
aVChuda
p5881
aVDasada Patadi
p5882
aVDhrangadhra
p5883
aVHalvad
p5884
aVLakhtar
p5885
aVLimbdi
p5886
aVMuli
p5887
aVSayla
p5888
aVWadhwan
p5889
asVAnand
p5890
(lp5891
VAnand
p5892
aVAnklav
p5893
aVBorsad
p5894
aVKhambhat
p5895
aVPetlad
p5896
aVSojitra
p5897
aVTarpur
p5898
aVUmreth
p5899
asVMehsana
p5900
(lp5901
VBecharaji
p5902
aVKadi
p5903
aVKheralu
p5904
aVMehsana
p5905
aVSatlasana
p5906
aVUnjha
p5907
aVVadnagar
p5908
aVVijapur
p5909
aVVisnagar
p5910
asVPatan
p5911
(lp5912
VChanasma
p5913
aVHarij
p5914
aVPatan
p5915
aVRadhanpur
p5916
aVSami
p5917
aVSantalpur
p5918
aVSidhpur
p5919
asVGandhinagar
p5920
(lp5921
VDehgam
p5922
aVGandhinagar
p5923
aVKalol
p5924
aVMansa
p5925
asVBanaskantha
p5926
(lp5927
VAmirgadh
p5928
aVBhabhar
p5929
aVDanta
p5930
aVDantiwada
p5931
aVDeesa
p5932
aVDeodar
p5933
aVDhanera
p5934
aVKankrej
p5935
aVPalanpur
p5936
aVTharad
p5937
aVVadgam
p5938
aVWav
p5939
assVDaman And Diu (UT)
p5940
(dp5941
VDaman And Diu
p5942
(lp5943
VBhimpore
p5944
aVDabhel
p5945
aVDamanwada
p5946
aVDiu
p5947
aVKanchigam
p5948
aVMagarwada
p5949
aVMarwad
p5950
aVPariyari
p5951
aVVarkund
p5952
assVArunachal Pradesh
p5953
(dp5954
VAnjaw
p5955
(lp5956
VHawai-Walong
p5957
aVHayuliang
p5958
asVEast Siang
p5959
(lp5960
VMebo
p5961
aVPangin Boleng
p5962
aVPasighat
p5963
aVRamle Bango
p5964
aVRuksin
p5965
asVPapum Pare
p5966
(lp5967
VBalijan
p5968
aVDoimukh
p5969
aVMengio
p5970
aVSagalee
p5971
asVTawang
p5972
(lp5973
VLumla Zemithang
p5974
aVMukto Thingbu
p5975
aVTawang
p5976
asVChanglang
p5977
(lp5978
VBordumsa-Diyun
p5979
aVChanglang
p5980
aVKhagam Miao
p5981
aVKhimiyang
p5982
aVNampong Manmao
p5983
asVKurung Kumey
p5984
(lp5985
VChambang
p5986
aVDamin
p5987
aVKoloriang
p5988
aVNyapin
p5989
aVPalin
p5990
aVSangram
p5991
aVSarli
p5992
aVTali
p5993
asVLower Subansiri
p5994
(lp5995
VRaga
p5996
aVZiro-I
p5997
aVZiro-II
p5998
asVEast Kameng
p5999
(lp6000
VBameng
p6001
aVBana
p6002
aVChayangtajo
p6003
aVPakkekessang
p6004
aVPipu
p6005
aVSeppa
p6006
asVUpper Subansiri
p6007
(lp6008
VBaririjo
p6009
aVDaporijo
p6010
aVDumporijo
p6011
aVGiba
p6012
aVNacho
p6013
aVSiyum
p6014
aVTaliha
p6015
asVLohit
p6016
(lp6017
VLekang
p6018
aVNamsai-Chowkham
p6019
aVTezu
p6020
aVWakro
p6021
asVUpper Siang
p6022
(lp6023
VGeku
p6024
aVJengging
p6025
aVMariyang
p6026
aVTuting
p6027
aVYingkiong
p6028
asVLower Dibang Valley
p6029
(lp6030
VDambuk
p6031
aVHunli Desali
p6032
aVRoing
p6033
asVDibang Valley
p6034
(lp6035
VAnelieh Arzoo
p6036
aVAnini Mipi
p6037
aVEtalin Malinye
p6038
asVWest Siang
p6039
(lp6040
VAlong West
p6041
aVAlong East
p6042
aVBasar
p6043
aVGensi
p6044
aVKaying
p6045
aVLikabali
p6046
aVLiromoba
p6047
aVMechuka
p6048
aVMonigong
p6049
aVRumgong
p6050
asVTirap
p6051
(lp6052
VKanubari
p6053
aVKhonsa
p6054
aVLazu
p6055
aVNamsang
p6056
aVNiausa
p6057
aVPongchau Wakka
p6058
asVWest Kameng
p6059
(lp6060
VDirang
p6061
aVKalaktang
p6062
aVNafra
p6063
aVThrizino
p6064
assVMaharashtra
p6065
(dp6066
VSatara
p6067
(lp6068
VJaoli
p6069
aVKarad
p6070
aVKhandala
p6071
aVKhatav
p6072
aVKoregaon
p6073
aVMahableshwar
p6074
aVMan
p6075
aVPatan
p6076
aVPhaltan
p6077
aVSatara
p6078
aVWai
p6079
asVBeed
p6080
(lp6081
VAmbejogai
p6082
aVAshti
p6083
aVBeed
p6084
aVDharur
p6085
aVGeorai
p6086
aVKaij
p6087
aVMajalgaon
p6088
aVParli
p6089
aVPatoda
p6090
aVShirur (Kasar)
p6091
aVWadwani
p6092
asVSindhudurg
p6093
(lp6094
VDevgad
p6095
aVDodamarg
p6096
aVKankavli
p6097
aVKudal
p6098
aVMalvan
p6099
aVSavantwadi
p6100
aVVaibhavwadi
p6101
aVVengurla
p6102
asVWashim
p6103
(lp6104
VKaranja
p6105
aVMalegaon
p6106
aVMangrulpir
p6107
aVMonora
p6108
aVRishod
p6109
aVWashim
p6110
asVThane
p6111
(lp6112
VAmbarnath
p6113
aVAmbarnath
p6114
aVBhiwandi
p6115
aVDahanu
p6116
aVJawhar
p6117
aVKalyan
p6118
aVMokhada
p6119
aVMurbad
p6120
aVPalghar
p6121
aVShahapur
p6122
aVTalasari
p6123
aVThane
p6124
aVVasai
p6125
aVVikramgad
p6126
aVWada
p6127
asVSangali
p6128
(lp6129
VAtpadi
p6130
aVJath
p6131
aVKavathemahankal
p6132
aVKhanapur
p6133
aVMiraj
p6134
aVPalus
p6135
aVShirala
p6136
aVTasgaon
p6137
aVWalwa
p6138
asVWardha
p6139
(lp6140
VArvi
p6141
aVAshti
p6142
aVDeoli
p6143
aVHinganghat
p6144
aVKaranja
p6145
aVSamudrapur
p6146
aVSeloo
p6147
aVWardha
p6148
asVDhule
p6149
(lp6150
VDhule
p6151
aVSakri
p6152
aVShindkheda
p6153
aVShirpur
p6154
asVBuldhana
p6155
(lp6156
VBuldhana
p6157
aVChikhali
p6158
aVDeulgaon Raja
p6159
aVJalgaon Jamod
p6160
aVKhamgaon
p6161
aVLonar
p6162
aVMalkapur
p6163
aVMehkar
p6164
aVMotala
p6165
aVNandura
p6166
aVSangrampur
p6167
aVShegaon
p6168
aVSindhkhed Raja
p6169
aVTelhara
p6170
asVSolapur
p6171
(lp6172
VAkkalkot
p6173
aVBarshi
p6174
aVKarmala
p6175
aVMadha
p6176
aVMalshiras
p6177
aVMangalwedha
p6178
aVMohol
p6179
aVNorth Solapur
p6180
aVPandharpur
p6181
aVSangola
p6182
aVSouth Solapur
p6183
asVAmrawati
p6184
(lp6185
VAchalpur
p6186
aVAmrawati
p6187
aVAnjangaon
p6188
aVBhatkuli
p6189
aVChandur Bazar
p6190
aVChandur Railway
p6191
aVChikhaldara
p6192
aVDaryapur
p6193
aVDhamangaon Railway
p6194
aVDharni
p6195
aVMorshi
p6196
aVNandgaon Khandeshwar
p6197
aVTeosa
p6198
aVWarud
p6199
asVChandrapur
p6200
(lp6201
VBhadravati
p6202
aVBrahmapuri
p6203
aVChandrapur
p6204
aVChimur
p6205
aVGondpipri
p6206
aVKorpana
p6207
aVMul
p6208
aVNagbhid
p6209
aVRajura
p6210
aVSawali
p6211
aVShindewahi
p6212
aVWarora
p6213
asVAurangabad
p6214
(lp6215
VAurangabad
p6216
aVGangapur
p6217
aVKannad
p6218
aVKhuldabad
p6219
aVPaithan
p6220
aVSillod
p6221
aVSoyagaon
p6222
aVVaijapur
p6223
asVRaigad
p6224
(lp6225
VAlibag
p6226
aVKarjat
p6227
aVKhalapur
p6228
aVMahad
p6229
aVMangaon
p6230
aVMhasala
p6231
aVMurud
p6232
aVPanvel
p6233
aVPen
p6234
aVPoladpur
p6235
aVRoha
p6236
aVShriwardhan
p6237
aVSudhagad
p6238
aVTala
p6239
aVUran
p6240
asVHingoli
p6241
(lp6242
VAundha Nagn
p6243
aVBasmath
p6244
aVHingoli
p6245
aVKalamnuri
p6246
aVSengaon
p6247
asVRatnagiri
p6248
(lp6249
VChiplun
p6250
aVDapoli
p6251
aVGuhagar
p6252
aVKhed
p6253
aVLanja
p6254
aVMandangad
p6255
aVRajapur
p6256
aVRatnagiri
p6257
aVSangameshwar
p6258
asVJalgaon
p6259
(lp6260
VAmalner
p6261
aVBhadgaon
p6262
aVBhusawal
p6263
aVChalisgaon
p6264
aVChopda
p6265
aVErandol
p6266
aVJalgaon
p6267
aVJamner
p6268
aVMuktainagar
p6269
aVPachora
p6270
aVParola
p6271
aVRaver
p6272
aVYawal
p6273
asVPune
p6274
(lp6275
VAmbegaon
p6276
aVBaramati
p6277
aVBhor
p6278
aVDound
p6279
aVHaveli
p6280
aVIndapur
p6281
aVJunnar
p6282
aVKhed
p6283
aVMaval
p6284
aVMulshi
p6285
aVPurandhar
p6286
aVShirur
p6287
aVVelha
p6288
asVNandurbar
p6289
(lp6290
VAkkalkuwa
p6291
aVAkrani
p6292
aVNandurbar
p6293
aVNawapur
p6294
aVShahada
p6295
aVTaloda
p6296
asVGadchiroli
p6297
(lp6298
VAheri
p6299
aVArmori
p6300
aVBhamragad
p6301
aVChamorshi
p6302
aVDhanora
p6303
aVEtapalli
p6304
aVGadchiroli
p6305
aVKorchi
p6306
aVKurkheda
p6307
aVMulchera
p6308
aVSironcha
p6309
aVWadsa
p6310
asVNagpur
p6311
(lp6312
VBhiwapur
p6313
aVHingna
p6314
aVKalmeshwar
p6315
aVKamptee
p6316
aVKatol
p6317
aVKuhi
p6318
aVMouda
p6319
aVNagpur
p6320
aVNarkhed
p6321
aVParseoni
p6322
aVRamtek
p6323
aVSaoner
p6324
aVUmred
p6325
asVAhmednagar
p6326
(lp6327
VAkole
p6328
aVJamkhed
p6329
aVKarjat
p6330
aVKopargaon
p6331
aVNagar
p6332
aVNewasa
p6333
aVParner
p6334
aVPathardi
p6335
aVRahata
p6336
aVRahuri
p6337
aVSangamner
p6338
aVShevgaon
p6339
aVShrigonda
p6340
aVShrirampur
p6341
asVNanded
p6342
(lp6343
VArdhapur
p6344
aVBhokar
p6345
aVBiloli
p6346
aVDeglur
p6347
aVDharmabad
p6348
aVHadgaon
p6349
aVHimayatnagar
p6350
aVKandhar
p6351
aVKinwat
p6352
aVLoha
p6353
aVMahur
p6354
aVMudkhed
p6355
aVMukhed
p6356
aVNaigaon
p6357
aVNanded
p6358
aVUmri
p6359
asVKolhapur
p6360
(lp6361
VAjara
p6362
aVBhudargad
p6363
aVChandagad
p6364
aVGadhinglaj
p6365
aVGaganbavada
p6366
aVHatkanangle
p6367
aVKagal
p6368
aVKarveer
p6369
aVPanhala
p6370
aVRadhanagri
p6371
aVShahuwadi
p6372
aVShirol
p6373
asVBhandara
p6374
(lp6375
VBhandara.
p6376
aVLakhandur
p6377
aVLakhani
p6378
aVMohadi
p6379
aVPauni
p6380
aVSakoli
p6381
aVTumsar
p6382
asVAkola
p6383
(lp6384
VAkola
p6385
aVAkot
p6386
aVBalapur
p6387
aVBarshitakli
p6388
aVMurtizapur
p6389
aVPatur
p6390
aVTelhara
p6391
asVOsmanabad
p6392
(lp6393
VBhoom
p6394
aVKallam
p6395
aVLohara
p6396
aVOmerga
p6397
aVOsmanabad
p6398
aVParanda
p6399
aVTuljapur
p6400
aVWashi
p6401
asVGondia
p6402
(lp6403
VAmgaon
p6404
aVArjuni/ Morgaon
p6405
aVDeori
p6406
aVGondia
p6407
aVGoregaon
p6408
aVSadak/ Arjuni
p6409
aVSalekasa
p6410
aVTirora
p6411
asVParbhani
p6412
(lp6413
VGangakhed
p6414
aVJintur
p6415
aVManwath
p6416
aVPalam
p6417
aVParbhani
p6418
aVPathri
p6419
aVPurna
p6420
aVSailu
p6421
aVSonpeth
p6422
asVJalna
p6423
(lp6424
VAmbad
p6425
aVBadnapur
p6426
aVBhokardan
p6427
aVGhanswangi
p6428
aVJafrabad
p6429
aVJalna
p6430
aVMantha
p6431
aVPartur
p6432
asVNashik
p6433
(lp6434
VBaglan
p6435
aVChandwad
p6436
aVDeola
p6437
aVDindori
p6438
aVIgatpuri
p6439
aVKalwan
p6440
aVMalegaon
p6441
aVNandgaon
p6442
aVNashik
p6443
aVNiphad
p6444
aVPeth
p6445
aVSinner
p6446
aVSurgana
p6447
aVTrimbkeshwar
p6448
aVYeola
p6449
asVYavatmal
p6450
(lp6451
VArni
p6452
aVBabulgaon
p6453
aVDarwha
p6454
aVDigras
p6455
aVGhatanji
p6456
aVKalamb
p6457
aVKelapur
p6458
aVMahagaon
p6459
aVMaregaon
p6460
aVNer
p6461
aVPusad
p6462
aVRelagaon
p6463
aVUmarkhed
p6464
aVWani
p6465
aVYeotmal
p6466
aVZarijamni
p6467
asVLatur
p6468
(lp6469
VAhmadpur
p6470
aVAusa
p6471
aVChakur
p6472
aVDeoni
p6473
aVJalkot
p6474
aVLatur
p6475
aVNilanga
p6476
aVRenapur
p6477
aVShirur Anantpal
p6478
aVUdgir
p6479
assVTripura
p6480
(dp6481
VWest Tripura
p6482
(lp6483
VBishalghar
p6484
aVBoxanagar
p6485
aVDukli
p6486
aVHezamara
p6487
aVJampaijala
p6488
aVJirania
p6489
aVKalyanpur
p6490
aVKathalia
p6491
aVKhowai
p6492
aVMandai
p6493
aVMelaghar
p6494
aVMohanpur
p6495
aVPadmabil
p6496
aVTeliamura
p6497
aVTulasikhar
p6498
asVSouth Tripura
p6499
(lp6500
VAmarpur
p6501
aVBagafa
p6502
aVHrishyamukh
p6503
aVKakraban
p6504
aVKarbook
p6505
aVKilla
p6506
aVMatarbari
p6507
aVRajnagar
p6508
aVRupaichari
p6509
aVSatchand
p6510
asVNorth Tripura
p6511
(lp6512
VDamcherra
p6513
aVDasda
p6514
aVGournagar
p6515
aVJampuihill
p6516
aVKadamtala
p6517
aVKumarghat
p6518
aVPanisagar
p6519
aVPencharthal
p6520
asVDhalai
p6521
(lp6522
VAmbassa
p6523
aVChawmanu
p6524
aVDumburnagar
p6525
aVManu
p6526
aVSalema
p6527
assVTelangana
p6528
(dp6529
VNizamabad
p6530
(lp6531
VArmur
p6532
aVBalkonda
p6533
aVBanswada
p6534
aVBheemgal
p6535
aVBhiknur
p6536
aVBirkoor
p6537
aVBichkunda
p6538
aVBodhan
p6539
aVDhar Pally
p6540
aVDich Pally
p6541
aVDomakonda
p6542
aVGandhari
p6543
aVJakranpalle
p6544
aVJukkal
p6545
aVKamareddy
p6546
aVKammar Palle
p6547
aVKotgiri
p6548
aVLingampet
p6549
aVMachareddy
p6550
aVMadnur
p6551
aVMakloor
p6552
aVMortad
p6553
aVNagireddipet
p6554
aVNandipet
p6555
aVNavipet
p6556
aVNizam Sagar
p6557
aVNizamabad
p6558
aVPitlam
p6559
aVRanjal
p6560
aVSadasivanagar
p6561
aVSirkonda
p6562
aVTadwai
p6563
aVVarni
p6564
aVVelpur
p6565
aVYeda Palle
p6566
aVYellareddy
p6567
asVWarangal
p6568
(lp6569
VAtmakur
p6570
aVBachannapeta
p6571
aVBhupalpalle
p6572
aVChennaraopet
p6573
aVCheriyal
p6574
aVChityal
p6575
aVDevaruppula
p6576
aVDharmasagar
p6577
aVDornakal
p6578
aVDuggondi
p6579
aVEturnagaram
p6580
aVGeesugonda
p6581
aVGhanapur Mulug
p6582
aVGhanpur(Stn)
p6583
aVGovindaraopet
p6584
aVGudur
p6585
aVHanamkonda
p6586
aVHasanparthy
p6587
aVJangaon
p6588
aVKesamudram
p6589
aVKhanapur
p6590
aVKodakandla
p6591
aVKothaguda
p6592
aVKuravi
p6593
aVLingala Ghanpur
p6594
aVMaddur
p6595
aVMahabubabad
p6596
aVMangapet
p6597
aVMaripeda
p6598
aVMogullapalle
p6599
aVMulug
p6600
aVNallabelly
p6601
aVNarmetta
p6602
aVNarsampet
p6603
aVNarsimhulapet
p6604
aVNekkonda
p6605
aVNellikudur
p6606
aVPalakurthi
p6607
aVParkal
p6608
aVParvathagiri
p6609
aVRaghunathapally
p6610
aVRaiparthy
p6611
aVRegonda
p6612
aVSangem
p6613
aVShayampet
p6614
aVTadvai
p6615
aVThorrur
p6616
aVVenkatapur
p6617
aVWardhannapet
p6618
aVZaffergadh
p6619
asVKhammam
p6620
(lp6621
VAswapuram
p6622
aVAswaraopeta
p6623
aVBayyaram
p6624
aVBonakal
p6625
aVChandrugonda
p6626
aVCherla
p6627
aVChinthakani
p6628
aVDammapeta
p6629
aVDummugudem
p6630
aVEnkuru
p6631
aVGarla
p6632
aVGundala
p6633
aVJulurpad
p6634
aVKalluru
p6635
aVKamepalle
p6636
aVKamepalle
p6637
aVKhammam Rural
p6638
aVKhammam Urban
p6639
aVKonijerla
p6640
aVKothagudem
p6641
aVKusumanchi
p6642
aVMadhira
p6643
aVManuguru
p6644
aVMudigonda
p6645
aVMulakalapalle
p6646
aVNelakondapalle
p6647
aVPalawancha
p6648
aVPenuballi
p6649
aVPinapaka
p6650
aVSathupalle
p6651
aVSingareni
p6652
aVTekulapalle
p6653
aVThallada
p6654
aVThirumalayapalem
p6655
aVVemsoor
p6656
aVVenkatapuram
p6657
aVWazeed
p6658
aVWyra
p6659
aVYellandu
p6660
aVYerrupalem
p6661
asVNalgonda
p6662
(lp6663
VAlair
p6664
aVAnumula
p6665
aVAravapally
p6666
aVAtmakur (S)
p6667
aVAtmakur (M)
p6668
aVBhuvanagiri
p6669
aVBibinagar
p6670
aVBommalaramaram
p6671
aVChandam Pet
p6672
aVChandur
p6673
aVChilkur
p6674
aVChintha Pally
p6675
aVChityal
p6676
aVChivvemla
p6677
aVChoutuppal
p6678
aVDameracherla
p6679
aVDevarakonda
p6680
aVGaride Pally
p6681
aVGundala
p6682
aVGundla Pally
p6683
aVGurrampode
p6684
aVHuzurnagar
p6685
aVKangal
p6686
aVKattangoor
p6687
aVKethepally
p6688
aVKodad
p6689
aVMarri Guda
p6690
aVMattampally
p6691
aVMellachervu
p6692
aVMiryalaguda
p6693
aVMothey
p6694
aVMothkur
p6695
aVMunagala
p6696
aVMunugode
p6697
aVNadigudem
p6698
aVNakrekal
p6699
aVNalgonda
p6700
aVNampalle
p6701
aVNarayanapur
p6702
aVNarketpally
p6703
aVNered Cherla
p6704
aVNidamanoor
p6705
aVNuthankal
p6706
aVPedda Adiserlapalle
p6707
aVPeddavoora
p6708
aVPenpahad
p6709
aVPochampally
p6710
aVRajapet
p6711
aVRamannapeta
p6712
aVSaligouraram
p6713
aVSuryapet
p6714
aVThipparthy
p6715
aVThirumalagiri
p6716
aVThripuraram
p6717
aVThunga Thurthy
p6718
aVThurkapally
p6719
aVValigonda
p6720
aVVemulapally
p6721
aVYadagirigutta
p6722
asVMahaboobnagar
p6723
(lp6724
VAchampeta
p6725
aVAddakal
p6726
aVAiza
p6727
aVAlampur
p6728
aVAmangal
p6729
aVAmrabad
p6730
aVAtmakur
p6731
aVBalanagar
p6732
aVBalmoor
p6733
aVBhoothpur
p6734
aVBijinapalle
p6735
aVBomraspeta
p6736
aVChinna Chinta Kunta
p6737
aVDamaragidda
p6738
aVDevarkadara
p6739
aVDhanwada
p6740
aVDharur
p6741
aVDoulatabad
p6742
aVFarooqnagar
p6743
aVGadwal
p6744
aVGhanpur
p6745
aVGhattu
p6746
aVGopalpeta
p6747
aVHanwada
p6748
aVItikyal
p6749
aVJadcherla
p6750
aVKalwakurthy
p6751
aVKeshampeta
p6752
aVKodair
p6753
aVKodangal
p6754
aVKoilkonda
p6755
aVKollapur
p6756
aVKondurg
p6757
aVKosgi
p6758
aVKothakota
p6759
aVKothur
p6760
aVLingal
p6761
aVMaddur
p6762
aVMadgul
p6763
aVMaganoor
p6764
aVMahabubnagar
p6765
aVMakthal
p6766
aVMaldakal
p6767
aVManopadu
p6768
aVMidjil
p6769
aVNagarkurnool
p6770
aVNarayanpet
p6771
aVNarva
p6772
aVNawabpet
p6773
aVPangal
p6774
aVPeddakothapalle
p6775
aVPeddamandadi
p6776
aVTadoor
p6777
aVTalakondapalle
p6778
aVTelkapalle
p6779
aVThimmajipeta
p6780
aVUppununthala
p6781
aVUtkoor
p6782
aVVangoor
p6783
aVVeldanda
p6784
aVWanaparthy
p6785
aVWeepangandla
p6786
aVPebbair
p6787
aVWaddepalle
p6788
asVKarimnagar
p6789
(lp6790
VBejjenki
p6791
aVBheemadevarpalle
p6792
aVBoinpalle
p6793
aVChandurthi
p6794
aVChigurumamidi
p6795
aVChoppadandi
p6796
aVDharmapuri
p6797
aVDharmaram
p6798
aVEligaid
p6799
aVElkathurthi
p6800
aVEllanthakunta
p6801
aVGambhiraopet
p6802
aVGangadhara
p6803
aVGollapalle
p6804
aVHusnabad
p6805
aVHuzurabad
p6806
aVIbrahimpatnam
p6807
aVJagtial
p6808
aVJammikunta
p6809
aVJulapalle
p6810
aVKamalapur
p6811
aVKamanpur
p6812
aVKataram
p6813
aVKathlapur
p6814
aVKodimial
p6815
aVKoheda
p6816
aVKonaraopeta
p6817
aVKoratla
p6818
aVMahadevpur
p6819
aVMalharrao
p6820
aVMallapur
p6821
aVMallial
p6822
aVManakondur
p6823
aVManthani
p6824
aVMedipalle
p6825
aVMetpalle
p6826
aVMustabad
p6827
aVMutharam Mahadevpur
p6828
aVMutharam Manthani
p6829
aVOdela
p6830
aVPeddapalle
p6831
aVPegadapalle
p6832
aVRaikal
p6833
aVRamadugu
p6834
aVRamagundam
p6835
aVSaidapur
p6836
aVSarangapur
p6837
aVShankerpatnam
p6838
aVSirsilla
p6839
aVSrirampur
p6840
aVSultanabad
p6841
aVThimmapur
p6842
aVVeenavanka
p6843
aVVelgatoor
p6844
aVVemulawada
p6845
aVYella Reddi Peta
p6846
aVKarimnagar
p6847
asVAdilabad
p6848
(lp6849
VAsifabad
p6850
aVBazarhathnoor
p6851
aVAdilabad
p6852
aVBejjur
p6853
aVBela
p6854
aVBellampalle
p6855
aVBhainsa
p6856
aVBheemini
p6857
aVBoath
p6858
aVChennur
p6859
aVDandepalle
p6860
aVDilawarpur
p6861
aVGudihathnur
p6862
aVIchoda
p6863
aVInderavelly
p6864
aVJainad
p6865
aVJainoor
p6866
aVJaipur
p6867
aVJannaram
p6868
aVKaddampeddur
p6869
aVKagaz Nagar
p6870
aVKasipet
p6871
aVKerameri
p6872
aVKhanpur
p6873
aVKotapalle
p6874
aVKouthala
p6875
aVKubeer
p6876
aVKuntala
p6877
aVLaxmanchanda
p6878
aVLohesra
p6879
aVLuxettipet
p6880
aVMamda
p6881
aVMancherial
p6882
aVMandamarri
p6883
aVMudhole
p6884
aVNarnoor
p6885
aVNennal
p6886
aVNeradigonda
p6887
aVNirmal
p6888
aVRebbana
p6889
aVSarangapur
p6890
aVSirpur (T)
p6891
aVSirpur (U)
p6892
aVTalamadugu
p6893
aVTamsi
p6894
aVTandur
p6895
aVTanur
p6896
aVTiryani
p6897
aVUtnur
p6898
aVVemanpalle
p6899
aVWankdi
p6900
aVDahegaon
p6901
asVRanga Reddy
p6902
(lp6903
VBalanagar
p6904
aVBantaram
p6905
aVBasheerabad
p6906
aVChevella
p6907
aVDharur
p6908
aVDoma
p6909
aVGandeed
p6910
aVGhatkesar
p6911
aVHayathnagar
p6912
aVIbrahimpatam
p6913
aVKandukur
p6914
aVKeesara
p6915
aVKulkacharla
p6916
aVMaheswaram
p6917
aVMalkajgiri
p6918
aVManchal
p6919
aVMarpalle
p6920
aVMedchal
p6921
aVMoinabad
p6922
aVMominpet
p6923
aVNawabpet
p6924
aVPargi
p6925
aVPeddemul
p6926
aVPudur
p6927
aVQuthbullapur
p6928
aVRajendranagar
p6929
aVSaroornagar
p6930
aVSerilingampalle
p6931
aVShabad
p6932
aVShamirpet
p6933
aVShamshabad
p6934
aVShankarpalle
p6935
aVTandur
p6936
aVUppal
p6937
aVVikarabad
p6938
aVYacharam
p6939
aVYelal
p6940
asVMedak
p6941
(lp6942
VAlladurg
p6943
aVAndole
p6944
aVChegunta
p6945
aVChinna Kodur
p6946
aVDoultabad
p6947
aVDubbak
p6948
aVGajwel
p6949
aVHathnoora
p6950
aVJagdevpur
p6951
aVJharasangam
p6952
aVJinnaram
p6953
aVKalher
p6954
aVKangti
p6955
aVKohir
p6956
aVKondapak
p6957
aVKondapur
p6958
aVKowdipalle
p6959
aVKulcharam
p6960
aVManoor
p6961
aVMedak
p6962
aVMirdoddi
p6963
aVMulug
p6964
aVMunpalle
p6965
aVNanganur
p6966
aVNarayankhed
p6967
aVNarsapur
p6968
aVNyalkal
p6969
aVPapannapet
p6970
aVPatancheru
p6971
aVPulkal
p6972
aVRaikode
p6973
aVRamachandrapuram
p6974
aVRamayampet
p6975
aVRegode
p6976
aVSadasivpet
p6977
aVSangareddy
p6978
aVShankarampet (A)
p6979
aVShankarampet (R)
p6980
aVShivampet
p6981
aVSiddipet
p6982
aVTekmal
p6983
aVTupran
p6984
aVWargal
p6985
aVYeldurthy
p6986
aVZahirabad
p6987
assVNagaland
p6988
(dp6989
VWokha
p6990
(lp6991
VBhandari
p6992
aVChukidong
p6993
aVSanis
p6994
aVWokha
p6995
aVWozhuro/Ralang
p6996
asVKohima
p6997
(lp6998
VChiephopozou
p6999
aVJakhama
p7000
aVKohima
p7001
aVTsemenyu
p7002
asVPhek
p7003
(lp7004
VKikruma
p7005
aVMeluri
p7006
aVPfutsero
p7007
aVPhek
p7008
aVSekruzu
p7009
asVKiphire
p7010
(lp7011
VKiphire
p7012
aVPungro
p7013
aVSitimi
p7014
asVLongleng
p7015
(lp7016
VLongleng
p7017
aVTamlu
p7018
asVPeren
p7019
(lp7020
VJalukie
p7021
aVPeren
p7022
aVTening
p7023
asVTuensang
p7024
(lp7025
VChare
p7026
aVChessore
p7027
aVLongkhim
p7028
aVNoklak
p7029
aVNoksen
p7030
aVSangsangnyu
p7031
aVShamator
p7032
aVThonknyu
p7033
asVMon
p7034
(lp7035
VChen
p7036
aVMon
p7037
aVPhomching
p7038
aVTizit
p7039
aVTobu
p7040
aVWakching
p7041
asVZunheboto
p7042
(lp7043
VAkuluto
p7044
aVGhathashi
p7045
aVSatakha
p7046
aVSuruhuto
p7047
aVTokiye
p7048
aVZunheboto
p7049
asVDimapur
p7050
(lp7051
VDhansaripar
p7052
aVKuhoboto
p7053
aVMedziphema
p7054
aVNiuland
p7055
asVMokokchung
p7056
(lp7057
VChangtongya
p7058
aVKobulong
p7059
aVLongchem
p7060
aVMangkolemba
p7061
aVOngpangkong (N)
p7062
aVOngpangkong (S)
p7063
assVKarnataka
p7064
(dp7065
VHaveri
p7066
(lp7067
VByadgi
p7068
aVHangal
p7069
aVHaveri
p7070
aVHirekerur
p7071
aVRanibennur
p7072
aVSavanur
p7073
aVShiggoan
p7074
asVMysore
p7075
(lp7076
VHeggadadevanakote
p7077
aVHunsur
p7078
aVKrishnarajanagar
p7079
aVMysore
p7080
aVNanjangud
p7081
aVPeriyapatna
p7082
aVT.Narasipur
p7083
asVChamarajanagar
p7084
(lp7085
VCR Nagar
p7086
aVGundlupet
p7087
aVKollegala
p7088
aVYelandur
p7089
asVRaichur
p7090
(lp7091
VDeodurga
p7092
aVLingasugur
p7093
aVManvi
p7094
aVRaichur
p7095
aVSindhanur
p7096
asVShimoga
p7097
(lp7098
VBhadravathi
p7099
aVHosanagar
p7100
aVSagar
p7101
aVShikaripur
p7102
aVShimoga
p7103
aVSoraba
p7104
aVThirthahalli
p7105
asVBagalkot
p7106
(lp7107
VBadami
p7108
aVBagalkot
p7109
aVBilgi
p7110
aVHungund
p7111
aVJamakhandi
p7112
aVMudhol
p7113
asVRamnagar
p7114
(lp7115
VChannapatna
p7116
aVKanakpur
p7117
aVMagadi
p7118
aVRamanagar
p7119
asVChitradurga
p7120
(lp7121
VChallakere
p7122
aVChitradurga
p7123
aVHiriyur
p7124
aVHolalkere
p7125
aVHosadurga
p7126
aVMolakalmur
p7127
asVDakshina Kannada
p7128
(lp7129
VBantwal
p7130
aVBelthangadi
p7131
aVMangalore
p7132
aVPuttur
p7133
aVSulya
p7134
asVUttara Kannada
p7135
(lp7136
VAnkola
p7137
aVBhatkal
p7138
aVHaliyal
p7139
aVHonnavara
p7140
aVJoida/ Supa)
p7141
aVKarwar
p7142
aVKumta
p7143
aVMundagod
p7144
aVSiddapura
p7145
aVSirsi
p7146
aVYellapura
p7147
asVChickballapur
p7148
(lp7149
VBagepalli
p7150
aVChickballapur
p7151
aVChinthamani
p7152
aVGowribidanur
p7153
aVGudibanda
p7154
aVSidlaghatta
p7155
asVKoppal
p7156
(lp7157
VGangavathi
p7158
aVKoppal
p7159
aVKustagi
p7160
aVYelburga
p7161
asVMandya
p7162
(lp7163
VKrishnarajapet
p7164
aVMaddur
p7165
aVMalavalli
p7166
aVMandya
p7167
aVNagamangala
p7168
aVPandavapura
p7169
aVSrirangapatna
p7170
asVTumkur
p7171
(lp7172
VC.N.Halli
p7173
aVGubbi
p7174
aVKoratagere
p7175
aVKunigal
p7176
aVMadhugiri
p7177
aVPavagada
p7178
aVSira
p7179
aVTiptur
p7180
aVTumkur
p7181
aVTuruvekere
p7182
asVBellary
p7183
(lp7184
VBellary
p7185
aVHadagali
p7186
aVHagaribommanahalli
p7187
aVHospet
p7188
aVKudligi
p7189
aVSandoor
p7190
aVSiruguppa
p7191
asVBijapur
p7192
(lp7193
VBasavanabagevadi
p7194
aVBijapur
p7195
aVIndi
p7196
aVMuddebihal
p7197
aVSindagi
p7198
asVKodagu
p7199
(lp7200
VMadikeri
p7201
aVSomavarpet
p7202
aVVirajpet
p7203
asVDharwad
p7204
(lp7205
VDharwad
p7206
aVHubli
p7207
aVKalghatgi
p7208
aVKundgol
p7209
aVNavalgund
p7210
asVBelgaum
p7211
(lp7212
VAthani
p7213
aVBailahongala
p7214
aVBelgaum
p7215
aVChikkodi
p7216
aVGokak
p7217
aVHukkeri
p7218
aVKhanapur
p7219
aVRaibag
p7220
aVRamadurga
p7221
aVSoundatti
p7222
asVUdupi
p7223
(lp7224
VKarkala
p7225
aVKundapura
p7226
aVUdupi
p7227
asVChickmagalur
p7228
(lp7229
VChickmagalur
p7230
aVKadur
p7231
aVKoppa
p7232
aVMudigere
p7233
aVNarasimharajapura
p7234
aVSringeri
p7235
aVTarikere
p7236
asVHassan
p7237
(lp7238
VAlur
p7239
aVArakalgud
p7240
aVArasikere
p7241
aVBelur
p7242
aVChannarayapatna
p7243
aVHassan
p7244
aVHolenarasipur
p7245
aVSakaleshpur
p7246
asVGulbarga
p7247
(lp7248
VAfzalpur
p7249
aVAland
p7250
aVChincholi
p7251
aVChittapur
p7252
aVGulbarga
p7253
aVJewargi
p7254
aVSedam
p7255
asVBidar
p7256
(lp7257
VAurad
p7258
aVBasavanakalyan
p7259
aVBhalki
p7260
aVBidar
p7261
aVHumnabad
p7262
asVYadgiri
p7263
(lp7264
VShahpur
p7265
aVShorapur
p7266
aVYadgiri
p7267
asVDavanagere
p7268
(lp7269
VChennagiri
p7270
aVDavanagere
p7271
aVHarapanahalli
p7272
aVHarihara
p7273
aVHonnali
p7274
aVJagalur
p7275
asVKolar
p7276
(lp7277
VBangarpet
p7278
aVKolar
p7279
aVMalur
p7280
aVMulbagal
p7281
aVSrinivasapura
p7282
asVBangalore R
p7283
(lp7284
VDevanahalli
p7285
aVDoddaballapur
p7286
aVHosakote
p7287
aVNelamangala
p7288
asVBangalore U
p7289
(lp7290
VAnekal
p7291
aVBangalore(E)
p7292
aVBangalore(N)
p7293
aVBangalore(S)
p7294
asVGadag
p7295
(lp7296
VGadag
p7297
aVMundargi
p7298
aVNargund
p7299
aVRon
p7300
aVShirhatti
p7301
assVAndaman And Nicobar Islands (UT)
p7302
(dp7303
VAndaman
p7304
(lp7305
sVNicobar
p7306
(lp7307
ssVMizoram
p7308
(dp7309
VKolasib
p7310
(lp7311
VThingdawl
p7312
asVSaiha
p7313
(lp7314
VSangau
p7315
aVTuipang
p7316
asVMamit
p7317
(lp7318
VReiek
p7319
aVW.Phaileng
p7320
aVZawlnuam
p7321
asVChamphai
p7322
(lp7323
VKhawbung
p7324
aVKhawzawl
p7325
aVNgopa
p7326
asVLawngtlai
p7327
(lp7328
VChawngte
p7329
aVLawngtlai
p7330
asVAizawl
p7331
(lp7332
VAibawk
p7333
aVDarlawn
p7334
aVPhullen
p7335
aVThingsulthliah
p7336
aVTlangnuam
p7337
asVLunglei
p7338
(lp7339
VBunghmun
p7340
aVHnahthial
p7341
aVLunglei
p7342
aVLungsen
p7343
asVSerchhip
p7344
(lp7345
VE.Lungdar
p7346
aVSerchhip
p7347
assVOdisha
p7348
(dp7349
VKhurda
p7350
(lp7351
VBalianta
p7352
aVBalipatna
p7353
aVBanapur
p7354
aVBegunia
p7355
aVBhubaneswar
p7356
aVBolagarh
p7357
aVChilika
p7358
aVJatni
p7359
aVKhurda
p7360
aVTangi
p7361
asVDeogarh
p7362
(lp7363
VBarkote
p7364
aVReamal
p7365
aVTileibani
p7366
asVBhadrak
p7367
(lp7368
VBasudevpur
p7369
aVBhadrak
p7370
aVBhandaripokhari
p7371
aVBonth
p7372
aVChandbali
p7373
aVDhamnagar
p7374
aVTihidi
p7375
asVKoraput
p7376
(lp7377
VBandhugaon
p7378
aVBoipariguda
p7379
aVBoriguma
p7380
aVDasmanthpur
p7381
aVJeypore
p7382
aVKoraput
p7383
aVKotpad
p7384
aVKundra
p7385
aVLamtaput
p7386
aVLaxmipur
p7387
aVNandapur
p7388
aVNarayanpatna
p7389
aVPottangi
p7390
aVSemiliguda
p7391
asVSonepur
p7392
(lp7393
VBinika
p7394
aVBirmaharajpur
p7395
aVDunguripali
p7396
aVSonepur
p7397
aVTarava
p7398
aVUlunda
p7399
asVGanjam
p7400
(lp7401
VAska
p7402
aVBeguniapada
p7403
aVBelguntha
p7404
aVBhanjanagar
p7405
aVBuguda
p7406
aVChhatrapur
p7407
aVChikiti
p7408
aVDharakote
p7409
aVDigapahandi
p7410
aVGanjam
p7411
aVHingilicut
p7412
aVJaganathprasad
p7413
aVKabisuryanagar
p7414
aVKhallikote
p7415
aVKukudakhandi
p7416
aVPatrapur
p7417
aVPolasara
p7418
aVPurusottampur
p7419
aVRengailunda
p7420
aVSanakhemundi
p7421
aVSeragada
p7422
aVSorada
p7423
asVPuri
p7424
(lp7425
VAstaranga
p7426
aVBrahmagiri
p7427
aVDelanga
p7428
aVGop
p7429
aVKakatpur
p7430
aVKanas
p7431
aVKrushnaprasad
p7432
aVNimapada
p7433
aVPipili
p7434
aVPuri
p7435
aVStyabadi
p7436
asVDhenkanal
p7437
(lp7438
VBhuban
p7439
aVDhenkanal
p7440
aVGondia
p7441
aVHindol
p7442
aVKamakhyanagar
p7443
aVKankadahad
p7444
aVOdapada
p7445
aVParajang
p7446
asVGajapati
p7447
(lp7448
VGumma
p7449
aVKasinagar
p7450
aVMohana
p7451
aVNuagada
p7452
aVParalakhemundi
p7453
aVR Udayagiri
p7454
aVRayagada
p7455
asVKendrapara
p7456
(lp7457
VAul (Ali)
p7458
aVDerabis
p7459
aVGaradpur
p7460
aVKendrapara
p7461
aVMahakalapara
p7462
aVMarshaghai
p7463
aVPattamundai
p7464
aVRajkanika
p7465
aVRajnagar
p7466
asVRayagada
p7467
(lp7468
VBissam Cuttack
p7469
aVChandrapur
p7470
aVGudari
p7471
aVGunupur
p7472
aVKalyansinghpur
p7473
aVKashipur
p7474
aVKolnara
p7475
aVMuniguda
p7476
aVPadmapur
p7477
aVRamanguda
p7478
aVRayagada
p7479
asVMayurbhanj
p7480
(lp7481
VBadasahi
p7482
aVBahalda
p7483
aVBangiriposi
p7484
aVBaripada
p7485
aVBetnati
p7486
aVBijatola
p7487
aVBisoi
p7488
aVGopabandhunagar
p7489
aVJamada
p7490
aVJashipur
p7491
aVKaptipada
p7492
aVKaranjia
p7493
aVKhunta
p7494
aVKuliana
p7495
aVKusumi
p7496
aVMorada
p7497
aVRairanghpur
p7498
aVRaruan
p7499
aVRasgovindpur
p7500
aVSamakhunta
p7501
aVSaraskana
p7502
aVSukruli
p7503
aVSuliapada
p7504
aVThakurmunda
p7505
aVTiringi
p7506
aVUdala
p7507
asVMalkangiri
p7508
(lp7509
VKalimela
p7510
aVKhairput
p7511
aVKorukunda
p7512
aVKudumuluguma
p7513
aVMalkangiri
p7514
aVMathili
p7515
aVPodia
p7516
asVBoudh
p7517
(lp7518
VBoudh
p7519
aVHarbhanga
p7520
aVKantamal
p7521
asVJajpur
p7522
(lp7523
VBadachana
p7524
aVBari
p7525
aVBinjharpur
p7526
aVDanagadi
p7527
aVDasrathpur
p7528
aVDharmasala
p7529
aVJajpur
p7530
aVKorei
p7531
aVRasulpur
p7532
aVSukinda
p7533
asVCuttack
p7534
(lp7535
VAthagarh
p7536
aVBanki
p7537
aVBanki-Dampada
p7538
aVBaramba
p7539
aVBaranga
p7540
aVCuttack
p7541
aVKantapara
p7542
aVMahanga
p7543
aVNarsinghpur
p7544
aVNiali
p7545
aVNischintakoili
p7546
aVSalipur
p7547
aVTangi Choudwar
p7548
aVTigiria
p7549
asVBalasore
p7550
(lp7551
VBahanaga
p7552
aVBalasore
p7553
aVBaliapal
p7554
aVBasta
p7555
aVBhogarai
p7556
aVJaleswar
p7557
aVKhaira
p7558
aVNilagiri
p7559
aVOupada
p7560
aVRemuna
p7561
aVSimulia
p7562
aVSoro
p7563
asVAngul
p7564
(lp7565
VAngul
p7566
aVAthamallik
p7567
aVBanarpal
p7568
aVChendipada
p7569
aVKaniha
p7570
aVKishorenagar
p7571
aVPallahara
p7572
aVTalcher
p7573
asVNuapara
p7574
(lp7575
VBoden
p7576
aVKhariar
p7577
aVKomna
p7578
aVNuapara
p7579
aVSinpalli
p7580
asVPhulbani(Kandhamal)
p7581
(lp7582
VBalliguda
p7583
aVChakapad
p7584
aVDaringbadi
p7585
aVG.Udayagiri
p7586
aVK.Nuagaon
p7587
aVKhajuripada
p7588
aVKotgarh
p7589
aVPhiringia
p7590
aVPhulbani
p7591
aVRaikia
p7592
aVTikabali
p7593
aVTumudibandh
p7594
asVKeonjhar
p7595
(lp7596
VAnandapur
p7597
aVBansapal
p7598
aVChampua
p7599
aVGhasipura
p7600
aVGhatgaon
p7601
aVHarichandanpur
p7602
aVHatadihi
p7603
aVJhumpura
p7604
aVJoda
p7605
aVKeonjhar
p7606
aVPatna
p7607
aVSaharpada
p7608
aVTelkoi
p7609
asVBolangir
p7610
(lp7611
VAgalpur
p7612
aVBangomunda
p7613
aVBelpara
p7614
aVBolangir
p7615
aVDeogaon
p7616
aVGudvella
p7617
aVKhaprakhol
p7618
aVLoisinga
p7619
aVMuribahal
p7620
aVPatnagarh
p7621
aVPuintala
p7622
aVSaintala
p7623
aVTitilagarh
p7624
aVTureikela
p7625
asVNayagarh
p7626
(lp7627
VBhapur
p7628
aVDaspalla
p7629
aVGania
p7630
aVKhandapara
p7631
aVNayagarh
p7632
aVNuagaon
p7633
aVOdagaon
p7634
aVRanpur
p7635
asVBargarh
p7636
(lp7637
VAmbabhona
p7638
aVAttabira
p7639
aVBargarh
p7640
aVBarpali
p7641
aVBhatli
p7642
aVBheden
p7643
aVBijepur
p7644
aVGaisilet
p7645
aVJharbandh
p7646
aVPadampur
p7647
aVPaikmal
p7648
aVSohella
p7649
asVJharsuguda
p7650
(lp7651
VJharsuguda
p7652
aVKirimira
p7653
aVKolabira
p7654
aVLaikera
p7655
aVLakhanpur
p7656
asVKalahandi
p7657
(lp7658
VBhawanipatna
p7659
aVDharmagarh
p7660
aVGolamunda
p7661
aVJaipatna
p7662
aVJunagarh
p7663
aVKalampur
p7664
aVKarlamunda
p7665
aVKesinga
p7666
aVKoksara
p7667
aVLanjigarh
p7668
aVM.Rampur
p7669
aVNarla
p7670
aVTh.Rampur
p7671
asVJagatsinghpur
p7672
(lp7673
VBalikuda
p7674
aVBiridi
p7675
aVErasama
p7676
aVJagatsinghpur
p7677
aVKujanga
p7678
aVNuagaon
p7679
aVRaghunathpur
p7680
aVTirtol
p7681
asVNawarangpur
p7682
(lp7683
VChandahandi
p7684
aVDabugam
p7685
aVJharigam
p7686
aVKosagumuda
p7687
aVNandahandi
p7688
aVNowrangpur
p7689
aVPapadahandi
p7690
aVRaighar
p7691
aVTentulikhunti
p7692
aVUmerkote
p7693
asVSambalpur
p7694
(lp7695
VBamra
p7696
aVDhankauda
p7697
aVJamankira
p7698
aVJujumura
p7699
aVKuchinda
p7700
aVManeswar
p7701
aVNaktideul
p7702
aVRairakhole
p7703
aVRengali
p7704
asVSundargarh
p7705
(lp7706
VBalisankara
p7707
aVBargaon
p7708
aVBisra
p7709
aVBonaigarh
p7710
aVGurundia
p7711
aVHemgiri
p7712
aVKoira
p7713
aVKuanramunda
p7714
aVKutra
p7715
aVLahunipara
p7716
aVLathikata
p7717
aVLefripada
p7718
aVNuagaon
p7719
aVRajgangpur
p7720
aVSubdega
p7721
aVSundargarh
p7722
aVTangarpali
p7723
assVSikkim
p7724
(dp7725
VWest
p7726
(lp7727
VGyalshing
p7728
aVSoreng
p7729
asVEast
p7730
(lp7731
VGangtok
p7732
aVPakyong
p7733
aVRongli
p7734
asVNorth
p7735
(lp7736
VChungthang
p7737
aVMangan
p7738
asVSouth
p7739
(lp7740
VNamchi
p7741
aVRavongla
p7742
ass.