(dp1
(V19
VLakshadweep (UT)
tp2
(dp3
s(V14
VHimachal Pradesh
tp4
(dp5
(V211
VHamirpur
tp6
(lp7
(V884
VBhoranj
tp8
a(V931
VBijhri
tp9
a(V2120
VHamirpur
tp10
a(V4046
VNadaun
tp11
a(V5935
VTauni Devi
tp12
a(V6076
VTihra Sujanpur
tp13
as(V297
VKinnaur
tp14
(lp15
(V2653
VKalpa
tp16
a(V4289
VNichar
tp17
a(V4807
VPooh
tp18
as(V509
VSirmaur
tp19
(lp20
(V4086
VNahan
tp21
a(V4406
VPachhad
tp22
a(V4534
VPaonta Sahib
tp23
a(V4980
VRajgarh
tp24
a(V5357
VSangrah
tp25
a(V5568
VShillai
tp26
as(V83
VBilaspur
tp27
(lp28
(V945
VBilaspur Sadar
tp29
a(V1904
VGehrwin
tp30
a(V1950
VGhumarwin
tp31
as(V324
VLahul And Spiti
tp32
(lp33
(V3327
VLahaul
tp34
a(V5756
VSpiti
tp35
as(V268
VKangra
tp36
(lp37
(V414
VBaijnath
tp38
a(V836
VBhawarna
tp39
a(V1487
VDehra Gopipur
tp40
a(V1774
VFatehpur
tp41
a(V2295
VIndora
tp42
a(V2714
VKangra
tp43
a(V3368
VLamba Gaon
tp44
a(V4082
VNagrota Bagwan
tp45
a(V4083
VNagrota Surian
tp46
a(V4358
VNurpur
tp47
a(V4501
VPanchrukhi
tp48
a(V4821
VPragpur
tp49
a(V4955
VRait
tp50
a(V5791
VSullah (Bhedu Mahadev)
tp51
as(V353
VMandi
tp52
(lp53
(V450
VBalh
tp54
a(V1096
VChachiot
tp55
a(V1204
VChauntra
tp56
a(V1573
VDharampur
tp57
a(V1676
VDrang
tp58
a(V2007
VGopalpur
tp59
a(V2795
VKarsog
tp60
a(V3647
VMandi Sadar
tp61
a(V5491
VSeraj
tp62
a(V5808
VSunder Nagar
tp63
as(V317
VKullu
tp64
(lp65
(V204
VAnni
tp66
a(V517
VBanjar
tp67
a(V3239
VKullu
tp68
a(V4072
VNaggar
tp69
a(V4316
VNirmand
tp70
as(V497
VShimla
tp71
(lp72
(V635
VBasantpur
tp73
a(V1201
VChauhara
tp74
a(V1346
VChopal
tp75
a(V2533
VJubbal and Kothai
tp76
a(V3751
VMashobra
tp77
a(V4187
VNarkanda
tp78
a(V5061
VRampur
tp79
a(V5183
VRohru
tp80
a(V6008
VTheog
tp81
as(V99
VChamba
tp82
(lp83
(V811
VBharmour
tp84
a(V824
VBhattiyat
tp85
a(V1131
VChamba
tp86
a(V3820
VMehla
tp87
a(V4516
VPangi
tp88
a(V5306
VSalooni
tp89
a(V6114
VTissa
tp90
as(V516
VSolan
tp91
(lp92
(V1575
VDharampur
tp93
a(V2699
VKandaghat
tp94
a(V3265
VKunihar
tp95
a(V4107
VNalagarh
tp96
a(V5715
VSolan
tp97
as(V567
VUna
tp98
(lp99
(V124
VAmb
tp100
a(V1620
VDhundla
tp101
a(V1803
VGagret
tp102
a(V2160
VHaroli
tp103
a(V6214
VUna
tp104
ass(V8
VDadra And Nagar Haveli
tp105
(dp106
(V124
VDadra And Nagar Haveli
tp107
(lp108
(V141
VAmboli
tp109
a(V1390
VDadra
tp110
a(V1439
VDapada
tp111
a(V1683
VDudhani
tp112
a(V2963
VKhanvel
tp113
a(V3038
VKilwani
tp114
a(V3651
VMandoni
tp115
a(V4198
VNaroli
tp116
a(V5079
VRandha
tp117
a(V5634
VSilvassa
tp118
ass(V30
VSikkim
tp119
(dp120
(V164
VEast
tp121
(lp122
(V1858
VGangtok
tp123
a(V4441
VPakyong
tp124
a(V5194
VRongli
tp125
as(V403
VNorth
tp126
(lp127
(V1362
VChungthang
tp128
a(V3666
VMangan
tp129
as(V588
VWest
tp130
(lp131
(V2093
VGyalshing
tp132
a(V5746
VSoreng
tp133
as(V522
VSouth
tp134
(lp135
(V4123
VNamchi
tp136
a(V5128
VRavongla
tp137
ass(V26
VOdisha
tp138
(dp139
(V265
VKalahandi
tp140
(lp141
(V833
VBhawanipatna
tp142
a(V1587
VDharmagarh
tp143
a(V1986
VGolamunda
tp144
a(V2358
VJaipatna
tp145
a(V2541
VJunagarh
tp146
a(V2612
VKalampur
tp147
a(V2786
VKarlamunda
tp148
a(V2898
VKesinga
tp149
a(V3086
VKoksara
tp150
a(V3378
VLanjigarh
tp151
a(V3452
VM.Rampur
tp152
a(V4193
VNarla
tp153
a(V5966
VTh.Rampur
tp154
as(V188
VGajapati
tp155
(lp156
(V2062
VGumma
tp157
a(V2815
VKasinagar
tp158
a(V3885
VMohana
tp159
a(V4349
VNuagada
tp160
a(V4545
VParalakhemundi
tp161
a(V4902
VR Udayagiri
tp162
a(V5136
VRayagada
tp163
as(V398
VNayagarh
tp164
(lp165
(V803
VBhapur
tp166
a(V1460
VDaspalla
tp167
a(V1860
VGania
tp168
a(V2951
VKhandapara
tp169
a(V4258
VNayagarh
tp170
a(V4350
VNuagaon
tp171
a(V4371
VOdagaon
tp172
a(V5104
VRanpur
tp173
as(V531
VSundargarh
tp174
(lp175
(V463
VBalisankara
tp176
a(V584
VBargaon
tp177
a(V988
VBisra
tp178
a(V1023
VBonaigarh
tp179
a(V2088
VGurundia
tp180
a(V2206
VHemgiri
tp181
a(V3084
VKoira
tp182
a(V3214
VKuanramunda
tp183
a(V3313
VKutra
tp184
a(V3331
VLahunipara
tp185
a(V3388
VLathikata
tp186
a(V3403
VLefripada
tp187
a(V4352
VNuagaon
tp188
a(V4976
VRajgangpur
tp189
a(V5778
VSubdega
tp190
a(V5807
VSundargarh
tp191
a(V5899
VTangarpali
tp192
as(V351
VMalkangiri
tp193
(lp194
(V2637
VKalimela
tp195
a(V2920
VKhairput
tp196
a(V3143
VKorukunda
tp197
a(V3225
VKudumuluguma
tp198
a(V3597
VMalkangiri
tp199
a(V3762
VMathili
tp200
a(V4782
VPodia
tp201
as(V40
VBalasore
tp202
(lp203
(V404
VBahanaga
tp204
a(V443
VBalasore
tp205
a(V455
VBaliapal
tp206
a(V654
VBasta
tp207
a(V870
VBhogarai
tp208
a(V2395
VJaleswar
tp209
a(V2915
VKhaira
tp210
a(V4300
VNilagiri
tp211
a(V4400
VOupada
tp212
a(V5151
VRemuna
tp213
a(V5645
VSimulia
tp214
a(V5747
VSoro
tp215
as(V429
VPhulbani(Kandhamal)
tp216
(lp217
(V467
VBalliguda
tp218
a(V1112
VChakapad
tp219
a(V1448
VDaringbadi
tp220
a(V1791
VG.Udayagiri
tp221
a(V2551
VK.Nuagaon
tp222
a(V2926
VKhajuripada
tp223
a(V3159
VKotgarh
tp224
a(V4735
VPhiringia
tp225
a(V4741
VPhulbani
tp226
a(V4939
VRaikia
tp227
a(V6080
VTikabali
tp228
a(V6151
VTumudibandh
tp229
as(V66
VBhadrak
tp230
(lp231
(V658
VBasudevpur
tp232
a(V758
VBhadrak
tp233
a(V793
VBhandaripokhari
tp234
a(V1030
VBonth
tp235
a(V1151
VChandbali
tp236
a(V1548
VDhamnagar
tp237
a(V6075
VTihidi
tp238
as(V289
VKendrapara
tp239
(lp240
(V308
VAul (Ali)
tp241
a(V1515
VDerabis
tp242
a(V1868
VGaradpur
tp243
a(V2883
VKendrapara
tp244
a(V3516
VMahakalapara
tp245
a(V3740
VMarshaghai
tp246
a(V4633
VPattamundai
tp247
a(V4984
VRajkanika
tp248
a(V4989
VRajnagar
tp249
as(V239
VJajpur
tp250
(lp251
(V349
VBadachana
tp252
a(V601
VBari
tp253
a(V958
VBinjharpur
tp254
a(V1420
VDanagadi
tp255
a(V1463
VDasrathpur
tp256
a(V1593
VDharmasala
tp257
a(V2371
VJajpur
tp258
a(V3138
VKorei
tp259
a(V5115
VRasulpur
tp260
a(V5786
VSukinda
tp261
as(V408
VNuapara
tp262
(lp263
(V999
VBoden
tp264
a(V2972
VKhariar
tp265
a(V3106
VKomna
tp266
a(V4353
VNuapara
tp267
a(V5664
VSinpalli
tp268
as(V23
VAngul
tp269
(lp270
(V194
VAngul
tp271
a(V283
VAthamallik
tp272
a(V492
VBanarpal
tp273
a(V1228
VChendipada
tp274
a(V2718
VKaniha
tp275
a(V3053
VKishorenagar
tp276
a(V4474
VPallahara
tp277
a(V5868
VTalcher
tp278
as(V520
VSonepur
tp279
(lp280
(V957
VBinika
tp281
a(V969
VBirmaharajpur
tp282
a(V1711
VDunguripali
tp283
a(V5731
VSonepur
tp284
a(V5922
VTarava
tp285
a(V6197
VUlunda
tp286
as(V152
VDhenkanal
tp287
(lp288
(V886
VBhuban
tp289
a(V1608
VDhenkanal
tp290
a(V1995
VGondia
tp291
a(V2217
VHindol
tp292
a(V2669
VKamakhyanagar
tp293
a(V2723
VKankadahad
tp294
a(V4374
VOdapada
tp295
a(V4542
VParajang
tp296
as(V396
VNawarangpur
tp297
(lp298
(V1146
VChandahandi
tp299
a(V1385
VDabugam
tp300
a(V2500
VJharigam
tp301
a(V3144
VKosagumuda
tp302
a(V4132
VNandahandi
tp303
a(V4347
VNowrangpur
tp304
a(V4535
VPapadahandi
tp305
a(V4937
VRaighar
tp306
a(V5959
VTentulikhunti
tp307
a(V6205
VUmerkote
tp308
as(V140
VDeogarh
tp309
(lp310
(V610
VBarkote
tp311
a(V5140
VReamal
tp312
a(V6086
VTileibani
tp313
as(V309
VKoraput
tp314
(lp315
(V495
VBandhugaon
tp316
a(V1010
VBoipariguda
tp317
a(V1035
VBoriguma
tp318
a(V1458
VDasmanthpur
tp319
a(V2483
VJeypore
tp320
a(V3132
VKoraput
tp321
a(V3177
VKotpad
tp322
a(V3261
VKundra
tp323
a(V3373
VLamtaput
tp324
a(V3400
VLaxmipur
tp325
a(V4135
VNandapur
tp326
a(V4173
VNarayanpatna
tp327
a(V4817
VPottangi
tp328
a(V5476
VSemiliguda
tp329
as(V54
VBargarh
tp330
(lp331
(V125
VAmbabhona
tp332
a(V303
VAttabira
tp333
a(V585
VBargarh
tp334
a(V616
VBarpali
tp335
a(V820
VBhatli
tp336
a(V837
VBheden
tp337
a(V930
VBijepur
tp338
a(V1810
VGaisilet
tp339
a(V2497
VJharbandh
tp340
a(V4412
VPadampur
tp341
a(V4430
VPaikmal
tp342
a(V5711
VSohella
tp343
as(V296
VKhurda
tp344
(lp345
(V454
VBalianta
tp346
a(V462
VBalipatna
tp347
a(V491
VBanapur
tp348
a(V685
VBegunia
tp349
a(V887
VBhubaneswar
tp350
a(V1015
VBolagarh
tp351
a(V1286
VChilika
tp352
a(V2462
VJatni
tp353
a(V3026
VKhurda
tp354
a(V5900
VTangi
tp355
as(V441
VPuri
tp356
(lp357
(V275
VAstaranga
tp358
a(V1045
VBrahmagiri
tp359
a(V1489
VDelanga
tp360
a(V2001
VGop
tp361
a(V2591
VKakatpur
tp362
a(V2694
VKanas
tp363
a(V3210
VKrushnaprasad
tp364
a(V4307
VNimapada
tp365
a(V4763
VPipili
tp366
a(V4868
VPuri
tp367
a(V5775
VStyabadi
tp368
as(V87
VBolangir
tp369
(lp370
(V28
VAgalpur
tp371
a(V510
VBangomunda
tp372
a(V710
VBelpara
tp373
a(V1016
VBolangir
tp374
a(V1498
VDeogaon
tp375
a(V2053
VGudvella
tp376
a(V2964
VKhaprakhol
tp377
a(V3433
VLoisinga
tp378
a(V4009
VMuribahal
tp379
a(V4625
VPatnagarh
tp380
a(V4844
VPuintala
tp381
a(V5276
VSaintala
tp382
a(V6117
VTitilagarh
tp383
a(V6157
VTureikela
tp384
as(V290
VKeonjhar
tp385
(lp386
(V172
VAnandapur
tp387
a(V535
VBansapal
tp388
a(V1138
VChampua
tp389
a(V1923
VGhasipura
tp390
a(V1929
VGhatgaon
tp391
a(V2145
VHarichandanpur
tp392
a(V2186
VHatadihi
tp393
a(V2505
VJhumpura
tp394
a(V2518
VJoda
tp395
a(V2884
VKeonjhar
tp396
a(V4623
VPatna
tp397
a(V5252
VSaharpada
tp398
a(V5952
VTelkoi
tp399
as(V123
VCuttack
tp400
(lp401
(V282
VAthagarh
tp402
a(V528
VBanki
tp403
a(V529
VBanki-Dampada
tp404
a(V564
VBaramba
tp405
a(V568
VBaranga
tp406
a(V1379
VCuttack
tp407
a(V2737
VKantapara
tp408
a(V3519
VMahanga
tp409
a(V4208
VNarsinghpur
tp410
a(V4287
VNiali
tp411
a(V4319
VNischintakoili
tp412
a(V5303
VSalipur
tp413
a(V5901
VTangi Choudwar
tp414
a(V6074
VTigiria
tp415
as(V89
VBoudh
tp416
(lp417
(V1043
VBoudh
tp418
a(V2141
VHarbhanga
tp419
a(V2736
VKantamal
tp420
as(V360
VMayurbhanj
tp421
(lp422
(V357
VBadasahi
tp423
a(V403
VBahalda
tp424
a(V509
VBangiriposi
tp425
a(V604
VBaripada
tp426
a(V736
VBetnati
tp427
a(V927
VBijatola
tp428
a(V987
VBisoi
tp429
a(V2002
VGopabandhunagar
tp430
a(V2406
VJamada
tp431
a(V2450
VJashipur
tp432
a(V2748
VKaptipada
tp433
a(V2764
VKaranjia
tp434
a(V3022
VKhunta
tp435
a(V3236
VKuliana
tp436
a(V3308
VKusumi
tp437
a(V3917
VMorada
tp438
a(V4953
VRairanghpur
tp439
a(V5108
VRaruan
tp440
a(V5110
VRasgovindpur
tp441
a(V5312
VSamakhunta
tp442
a(V5406
VSaraskana
tp443
a(V5789
VSukruli
tp444
a(V5790
VSuliapada
tp445
a(V5974
VThakurmunda
tp446
a(V6093
VTiringi
tp447
a(V6173
VUdala
tp448
as(V480
VSambalpur
tp449
(lp450
(V488
VBamra
tp451
a(V1560
VDhankauda
tp452
a(V2413
VJamankira
tp453
a(V2535
VJujumura
tp454
a(V3219
VKuchinda
tp455
a(V3661
VManeswar
tp456
a(V4104
VNaktideul
tp457
a(V4952
VRairakhole
tp458
a(V5154
VRengali
tp459
as(V462
VRayagada
tp460
(lp461
(V990
VBissam Cuttack
tp462
a(V1165
VChandrapur
tp463
a(V2035
VGudari
tp464
a(V2076
VGunupur
tp465
a(V2668
VKalyansinghpur
tp466
a(V2810
VKashipur
tp467
a(V3102
VKolnara
tp468
a(V3998
VMuniguda
tp469
a(V4419
VPadmapur
tp470
a(V5027
VRamanguda
tp471
a(V5135
VRayagada
tp472
as(V234
VJagatsinghpur
tp473
(lp474
(V460
VBalikuda
tp475
a(V967
VBiridi
tp476
a(V1745
VErasama
tp477
a(V2337
VJagatsinghpur
tp478
a(V3229
VKujanga
tp479
a(V4351
VNuagaon
tp480
a(V4920
VRaghunathpur
tp481
a(V6097
VTirtol
tp482
as(V257
VJharsuguda
tp483
(lp484
(V2501
VJharsuguda
tp485
a(V3044
VKirimira
tp486
a(V3087
VKolabira
tp487
a(V3332
VLaikera
tp488
a(V3338
VLakhanpur
tp489
as(V190
VGanjam
tp490
(lp491
(V267
VAska
tp492
a(V686
VBeguniapada
tp493
a(V703
VBelguntha
tp494
a(V798
VBhanjanagar
tp495
a(V1061
VBuguda
tp496
a(V1259
VChhatrapur
tp497
a(V1282
VChikiti
tp498
a(V1571
VDharakote
tp499
a(V1629
VDigapahandi
tp500
a(V1862
VGanjam
tp501
a(V2222
VHingilicut
tp502
a(V2332
VJaganathprasad
tp503
a(V2555
VKabisuryanagar
tp504
a(V2932
VKhallikote
tp505
a(V3231
VKukudakhandi
tp506
a(V4629
VPatrapur
tp507
a(V4792
VPolasara
tp508
a(V4879
VPurusottampur
tp509
a(V5153
VRengailunda
tp510
a(V5333
VSanakhemundi
tp511
a(V5490
VSeragada
tp512
a(V5744
VSorada
tp513
ass(V24
VMizoram
tp514
(dp515
(V5
VAizawl
tp516
(lp517
(V42
VAibawk
tp518
a(V1451
VDarlawn
tp519
a(V4742
VPhullen
tp520
a(V6015
VThingsulthliah
tp521
a(V6119
VTlangnuam
tp522
as(V102
VChamphai
tp523
(lp524
(V2987
VKhawbung
tp525
a(V2988
VKhawzawl
tp526
a(V4286
VNgopa
tp527
as(V491
VSerchhip
tp528
(lp529
(V1724
VE.Lungdar
tp530
a(V5493
VSerchhip
tp531
as(V340
VLunglei
tp532
(lp533
(V1070
VBunghmun
tp534
a(V2233
VHnahthial
tp535
a(V3447
VLunglei
tp536
a(V3448
VLungsen
tp537
as(V331
VLawngtlai
tp538
(lp539
(V1213
VChawngte
tp540
a(V3396
VLawngtlai
tp541
as(V477
VSaiha
tp542
(lp543
(V5352
VSangau
tp544
a(V6145
VTuipang
tp545
as(V352
VMamit
tp546
(lp547
(V5149
VReiek
tp548
a(V6396
VW.Phaileng
tp549
a(V6482
VZawlnuam
tp550
as(V305
VKolasib
tp551
(lp552
(V6014
VThingdawl
tp553
ass(V25
VNagaland
tp554
(dp555
(V428
VPhek
tp556
(lp557
(V3032
VKikruma
tp558
a(V3835
VMeluri
tp559
a(V4722
VPfutsero
tp560
a(V4731
VPhek
tp561
a(V5471
VSekruzu
tp562
as(V367
VMokokchung
tp563
(lp564
(V1176
VChangtongya
tp565
a(V3057
VKobulong
tp566
a(V3435
VLongchem
tp567
a(V3669
VMangkolemba
tp568
a(V4389
VOngpangkong (N)
tp569
a(V4390
VOngpangkong (S)
tp570
as(V557
VTuensang
tp571
(lp572
(V1186
VChare
tp573
a(V1244
VChessore
tp574
a(V3436
VLongkhim
tp575
a(V4337
VNoklak
tp576
a(V4338
VNoksen
tp577
a(V5364
VSangsangnyu
tp578
a(V5529
VShamator
tp579
a(V6053
VThonknyu
tp580
as(V302
VKohima
tp581
(lp582
(V1277
VChiephopozou
tp583
a(V2372
VJakhama
tp584
a(V3078
VKohima
tp585
a(V6140
VTsemenyu
tp586
as(V597
VWokha
tp587
(lp588
(V791
VBhandari
tp589
a(V1361
VChukidong
tp590
a(V5367
VSanis
tp591
a(V6438
VWokha
tp592
a(V6439
VWozhuro/Ralang
tp593
as(V335
VLongleng
tp594
(lp595
(V3437
VLongleng
tp596
a(V5887
VTamlu
tp597
as(V298
VKiphire
tp598
(lp599
(V3041
VKiphire
tp600
a(V4857
VPungro
tp601
a(V5695
VSitimi
tp602
as(V601
VZunheboto
tp603
(lp604
(V68
VAkuluto
tp605
a(V1930
VGhathashi
tp606
a(V5431
VSatakha
tp607
a(V5824
VSuruhuto
tp608
a(V6126
VTokiye
tp609
a(V6489
VZunheboto
tp610
as(V427
VPeren
tp611
(lp612
(V2403
VJalukie
tp613
a(V4709
VPeren
tp614
a(V5957
VTening
tp615
as(V157
VDimapur
tp616
(lp617
(V1564
VDhansaripar
tp618
a(V3228
VKuhoboto
tp619
a(V3808
VMedziphema
tp620
a(V4321
VNiuland
tp621
as(V368
VMon
tp622
(lp623
(V1225
VChen
tp624
a(V3910
VMon
tp625
a(V4736
VPhomching
tp626
a(V6118
VTizit
tp627
a(V6120
VTobu
tp628
a(V6408
VWakching
tp629
ass(V33
VUttar Pradesh
tp630
(dp631
(V345
VMaharajganj
tp632
(lp633
(V1051
VBrijmanganj
tp634
a(V1557
VDhani
tp635
a(V2054
VGughali
tp636
a(V3401
VLaxmipur
tp637
a(V3522
VMaharajganj
tp638
a(V3870
VMithaura
tp639
a(V4236
VNautanwa
tp640
a(V4290
VNichlaul
tp641
a(V4522
VPaniyara
tp642
a(V4578
VPartawal
tp643
a(V4730
VPharenda
tp644
a(V5688
VSiswa
tp645
as(V50
VBarabanki
tp646
(lp647
(V515
VBanikoder
tp648
a(V527
VBanki
tp649
a(V1449
VDariyabad
tp650
a(V1537
VDewa
tp651
a(V1771
VFatehpur
tp652
a(V2102
VHaidergarh
tp653
a(V2137
VHarakh
tp654
a(V3749
VMasauli
tp655
a(V4295
VNidura
tp656
a(V4867
VPuredalai
tp657
a(V5012
VRam Nagar
tp658
a(V5602
VSiddhaur
tp659
a(V5668
VSirauli Gauspur
tp660
a(V5816
VSuratganj
tp661
a(V6138
VTrivediganj
tp662
as(V474
VSaharanpur
tp663
(lp664
(V453
VBaliakheri
tp665
a(V1494
VDeoband
tp666
a(V1855
VGangoh
tp667
a(V4031
VMuzaffarabad
tp668
a(V4055
VNagal
tp669
a(V4105
VNakur
tp670
a(V4131
VNanauta
tp671
a(V4891
VPuwarka
tp672
a(V5064
VRampur Maniharan
tp673
a(V5236
VSadholi Quadim
tp674
a(V5422
VSarsawa
tp675
as(V91
VBulandshahr
tp676
(lp677
(V31
VAgauta
tp678
a(V207
VAnoopshahr
tp679
a(V222
VAraniya
tp680
a(V333
VB.B.Nagar
tp681
a(V1065
VBulandshahr
tp682
a(V1431
VDanpur
tp683
a(V1474
VDebai
tp684
a(V2059
VGulawathi
tp685
a(V2493
VJhangirabad
tp686
a(V3027
VKhurja
tp687
a(V3340
VLakhawati
tp688
a(V4427
VPahasu
tp689
a(V5566
VShikarpur
tp690
a(V5621
VSikandrabad
tp691
a(V5836
VSyana
tp692
a(V6215
VUnchagaon
tp693
as(V30
VAuraiya
tp694
(lp695
(V8
VAchalda
tp696
a(V50
VAjit Mal
tp697
a(V252
VArwa Katra
tp698
a(V314
VAuraiya
tp699
a(V765
VBhagaya Nagar
tp700
a(V910
VBidhuna
tp701
a(V5249
VSahar
tp702
as(V328
VLalitpur
tp703
(lp704
(V552
VBar
tp705
a(V965
VBirdha
tp706
a(V2376
VJakhora
tp707
a(V3471
VMadawara
tp708
a(V3541
VMahroni
tp709
a(V5867
VTalbehat
tp710
as(V34
VBadaun
tp711
(lp712
(V139
VAmbiapur
tp713
a(V256
VAsafpur
tp714
a(V977
VBisauli
tp715
a(V1465
VDataganj
tp716
a(V1484
VDehagawan
tp717
a(V2312
VIslamnagar
tp718
a(V2334
VJagat
tp719
a(V3851
VMiaon
tp720
a(V4898
VQuaderchowk
tp721
a(V5255
VSahaswan
tp722
a(V5295
VSalarpur
tp723
a(V5329
VSamrer
tp724
a(V6188
VUjhani
tp725
a(V6233
VUsawan
tp726
a(V6433
VWazirganj
tp727
as(V215
VHardoi
tp728
(lp729
(V41
VAhrori
tp730
a(V670
VBawan
tp731
a(V690
VBehndar
tp732
a(V808
VBharawan
tp733
a(V810
VBharkhani
tp734
a(V947
VBilgram
tp735
a(V2161
VHarpal Pur
tp736
a(V2170
VHaryawan
tp737
a(V2556
VKachhauna
tp738
a(V3171
VKothawan
tp739
a(V3483
VMadhoganj
tp740
a(V3604
VMallawan
tp741
a(V4749
VPihani
tp742
a(V5341
VSandi
tp743
a(V5342
VSandila
tp744
a(V5507
VShahbad
tp745
a(V5822
VSursa
tp746
a(V5895
VTandiyawan
tp747
a(V6123
VTodarpur
tp748
as(V42
VBalrampur
tp749
(lp750
(V476
VBalrampur
tp751
a(V1807
VGainsari
tp752
a(V1906
VGendas Buzurg
tp753
a(V2164
VHarraiya Satgharwa
tp754
a(V4410
VPachpedwa
tp755
a(V5148
VRehra
tp756
a(V5759
VSriduttganj
tp757
a(V6148
VTulsipur
tp758
a(V6246
VUtraula
tp759
as(V364
VMirzapur
tp760
(lp761
(V1252
VChhanbey
tp762
a(V2116
VHallia
tp763
a(V2411
VJamalpur
tp764
a(V3107
VKon
tp765
a(V3360
VLalganj
tp766
a(V3491
VMadihan
tp767
a(V3561
VMajhawa
tp768
a(V4062
VNagar (City)
tp769
a(V4162
VNarainpur
tp770
a(V4424
VPahadi
tp771
a(V4957
VRaj Garh
tp772
a(V5623
VSikhar
tp773
as(V577
VVaranasi
tp774
(lp775
(V229
VArazeeline
tp776
a(V557
VBaragaon
tp777
a(V1316
VChiraigaon
tp778
a(V1345
VCholapur
tp779
a(V2136
VHarahua
tp780
a(V2812
VKashividyapith
tp781
a(V4756
VPindra
tp782
a(V5497
VSewapuri
tp783
as(V359
VMau
tp784
(lp785
(V366
VBadraon
tp786
a(V1654
VDohrighat
tp787
a(V1776
VFatehpur Mandaon
tp788
a(V1947
VGhosi
tp789
a(V3125
VKopaganj
tp790
a(V3883
VMohammdabad
tp791
a(V4562
VPardaha
tp792
a(V5098
VRanipur
tp793
a(V5122
VRattanpura
tp794
as(V41
VBallia
tp795
(lp796
(V420
VBairia
tp797
a(V536
VBansdih
tp798
a(V706
VBelhari
tp799
a(V731
VBeruarbari
tp800
a(V1287
VChilkahar
tp801
a(V1679
VDubhar
tp802
a(V1800
VGadwar
tp803
a(V2130
VHanumanganj
tp804
a(V3674
VManiar
tp805
a(V4011
VMurlichhapra
tp806
a(V4077
VNagra
tp807
a(V4253
VNawanagar
tp808
a(V4503
VPandah
tp809
a(V5109
VRasda
tp810
a(V5161
VReoti
tp811
a(V5460
VSear
tp812
a(V5585
VShohaon
tp813
as(V470
VS.K. Nagar
tp814
(lp815
(V380
VBaghauli
tp816
a(V705
VBelhar Kala
tp817
a(V2104
VHaisar Bazar
tp818
a(V2931
VKhalilabad
tp819
a(V3817
VMehdawal
tp820
a(V4219
VNath Nagar
tp821
a(V4641
VPauli
tp822
a(V5317
VSamariyawan
tp823
a(V5381
VSantha
tp824
as(V15
VAmbedkarnagar
tp825
(lp826
(V54
VAkbarpur
tp827
a(V645
VBaskhari
tp828
a(V865
VBhiti
tp829
a(V869
VBhiyaun
tp830
a(V2349
VJahagirganj
tp831
a(V2387
VJalalpur
tp832
a(V2825
VKatehari
tp833
a(V5052
VRamnagar
tp834
a(V5894
VTanda
tp835
as(V362
VMeerut
tp836
(lp837
(V1469
VDaurala
tp838
a(V2183
VHastinapur
tp839
a(V2441
VJani Khurd
tp840
a(V2976
VKharkhoda
tp841
a(V3459
VMachhra
tp842
a(V3785
VMawana
tp843
a(V3810
VMeerut
tp844
a(V4567
VParikshatgarh
tp845
a(V5003
VRajpura
tp846
a(V5114
VRasoolpur Rhota
tp847
a(V5412
VSardhana
tp848
a(V5419
VSaroorpur
tp849
as(V2
VAgra
tp850
(lp851
(V14
VAchhnera
tp852
a(V63
VAkola
tp853
a(V394
VBah
tp854
a(V574
VBarauli Ahir
tp855
a(V908
VBichpuri
tp856
a(V1752
VEtmadpur
tp857
a(V1768
VFatehabad
tp858
a(V1777
VFatehpur Sikri
tp859
a(V2346
VJagner
tp860
a(V2370
VJaitpur Kalan
tp861
a(V2953
VKhandauli
tp862
a(V2998
VKheragarh
tp863
a(V4754
VPinahat
tp864
a(V5280
VSaiyan
tp865
a(V5534
VShamsabad
tp866
as(V182
VFatehpur
tp867
(lp868
(V45
VAirayan
tp869
a(V121
VAmauli
tp870
a(V260
VAshother
tp871
a(V410
VBahuwa
tp872
a(V864
VBhitaura
tp873
a(V1535
VDevmai
tp874
a(V1601
VDhata
tp875
a(V2184
VHaswa
tp876
a(V2187
VHathgaon
tp877
a(V2925
VKhajuha
tp878
a(V3613
VMalwan
tp879
a(V5950
VTeliyani
tp880
a(V6354
VVijaipur
tp881
as(V568
VUnnao
tp882
(lp883
(V269
VAsoha
tp884
a(V317
VAuras
tp885
a(V506
VBangarmau
tp886
a(V902
VBichchiya
tp887
a(V913
VBighapur
tp888
a(V1775
VFatehpur - 84
tp889
a(V1861
VGanj Muradabad
tp890
a(V2172
VHasanganj
tp891
a(V2210
VHilauli
tp892
a(V3872
VMiyaganj
tp893
a(V4243
VNawabganj
tp894
a(V4880
VPurwa
tp895
a(V5240
VSafipur
tp896
a(V5619
VSikandarpsur Karan
tp897
a(V5625
VSikrandarpur Sirosi
tp898
a(V5805
VSumerpur
tp899
as(V11
VAllahabad
tp900
(lp901
(V399
VBahadurpur
tp902
a(V405
VBaharia
tp903
a(V1110
VChaka
tp904
a(V1566
VDhanupur
tp905
a(V2122
VHandia
tp906
a(V2235
VHolagarh
tp907
a(V2454
VJasra
tp908
a(V2770
VKarchhana
tp909
a(V2858
VKaudihar
tp910
a(V2859
VKaundhiyara
tp911
a(V3131
VKoraon
tp912
a(V3632
VManda
tp913
a(V3774
VMau Aima
tp914
a(V3848
VMeza
tp915
a(V4738
VPhoolpur
tp916
a(V4828
VPratappur
tp917
a(V5266
VSaidabad
tp918
a(V5543
VShankergarh
tp919
a(V5745
VSoraon
tp920
a(V6231
VUrua
tp921
as(V444
VRae Bareli
tp922
(lp923
(V123
VAmawan
tp924
a(V348
VBachharawan
tp925
a(V1258
VChhatoh
tp926
a(V1405
VDalmau
tp927
a(V1479
VDeenshah Gaura
tp928
a(V1633
VDih
tp929
a(V2142
VHarchandpur
tp930
a(V2336
VJagatpur
tp931
a(V3000
VKheron
tp932
a(V3363
VLalganj
tp933
a(V3540
VMahrajganj
tp934
a(V4926
VRahi
tp935
a(V5181
VRohania
tp936
a(V5305
VSalon
tp937
a(V5397
VSaraini
tp938
a(V5434
VSatawan
tp939
a(V5556
VSheogarh
tp940
a(V6216
VUnchahar
tp941
as(V256
VJhansi
tp942
(lp943
(V343
VBabina
tp944
a(V350
VBadagaon
tp945
a(V482
VBamaur
tp946
a(V511
VBangra
tp947
a(V1321
VChirgaon
tp948
a(V2085
VGursarai
tp949
a(V3778
VMauranipur
tp950
a(V3934
VMoth
tp951
as(V322
VKushinagar
tp952
(lp953
(V1682
VDudhai
tp954
a(V1780
VFazil Nagar
tp955
a(V2185
VHata
tp956
a(V2747
VKaptanganj
tp957
a(V2817
VKasiya
tp958
a(V2906
VKhadda
tp959
a(V3937
VMoti Chak
tp960
a(V4262
VNebuwa Naurangiya
tp961
a(V4421
VPadrauna
tp962
a(V5046
VRamkola
tp963
a(V5488
VSeorahi
tp964
a(V5788
VSukrauli
tp965
a(V5886
VTamkuhi
tp966
a(V6386
VVisunpura
tp967
as(V630
VShamli
tp968
(lp969
(V7039
VShamli
tp970
a(V7040
VKairana
tp971
a(V7041
VKandhala
tp972
a(V7042
VThanabhawan
tp973
a(V7043
VUn
tp974
as(V347
VMahoba
tp975
(lp976
(V1188
VCharkhari
tp977
a(V2369
VJaitpur
tp978
a(V2553
VKabarai
tp979
a(V4531
VPanwari
tp980
as(V142
VDeoria
tp981
(lp982
(V423
VBaitalpur
tp983
a(V521
VBankata
tp984
a(V723
VBerhaj
tp985
a(V761
VBhagalpur
tp986
a(V786
VBhaluani
tp987
a(V821
VBhatni
tp988
a(V822
VBhatpar Rani
tp989
a(V1509
VDeoria Sadar
tp990
a(V1518
VDeshi Deoria
tp991
a(V2024
VGouri Bazar
tp992
a(V3382
VLar
tp993
a(V4616
VPatherdeva
tp994
a(V5063
VRampur Karkhana
tp995
a(V5205
VRudrapur
tp996
a(V5472
VSelempur
tp997
a(V5927
VTARKULWA
tp998
as(V38
VBahraich
tp999
(lp1000
(V451
VBalha
tp1001
a(V1331
VChittaura
tp1002
a(V1755
VFakharpur
tp1003
a(V2266
VHuzoorpur
tp1004
a(V2448
VJarwal
tp1005
a(V2587
VKaisarganj
tp1006
a(V3524
VMahasi
tp1007
a(V3855
VMihinpurwa
tp1008
a(V4241
VNawabganj
tp1009
a(V4648
VPayagpur
tp1010
a(V5171
VRisia
tp1011
a(V5582
VShivpur
tp1012
a(V5941
VTejwapur
tp1013
a(V6381
VVisheshwarganj
tp1014
as(V518
VSonebhadra
tp1015
(lp1016
(V341
VBabhani
tp1017
a(V1195
VChatra
tp1018
a(V1347
VChopan
tp1019
a(V1681
VDuddhi
tp1020
a(V1945
VGhorawal
tp1021
a(V4038
VMyorepur
tp1022
a(V4085
VNagwa
tp1023
a(V5176
VRobertsganj
tp1024
as(V33
VAzamgarh
tp1025
(lp1026
(V37
VAhiraula
tp1027
a(V299
VAtrauliya
tp1028
a(V327
VAzamatgarh
tp1029
a(V941
VBilariyaganj
tp1030
a(V2140
VHaraya
tp1031
a(V2351
VJahanaganj
tp1032
a(V3193
VKoyalasa
tp1033
a(V3361
VLalganj
tp1034
a(V3539
VMahrajganj
tp1035
a(V3741
VMartinganj
tp1036
a(V3821
VMehnagar
tp1037
a(V3866
VMirzapur
tp1038
a(V3882
VMohammadpur
tp1039
a(V4460
VPalhani
tp1040
a(V4461
VPalhna
tp1041
a(V4646
VPawai
tp1042
a(V4739
VPhoolpur
tp1043
a(V5088
VRani Ki Sarai
tp1044
a(V5438
VSathiyaon
tp1045
a(V5854
VTahbarpur
tp1046
a(V5933
VTarwa
tp1047
a(V6005
VThekma
tp1048
as(V471
VS.R. Nagar(Bhadohi)
tp1049
(lp1050
(V313
VAurai
tp1051
a(V755
VBhadoi
tp1052
a(V1473
VDeagh
tp1053
a(V2094
VGyanpur
tp1054
a(V5821
VSuriyawan
tp1055
as(V44
VBanda
tp1056
(lp1057
(V340
VBaberu
tp1058
a(V365
VBadokhar Khurd
tp1059
a(V976
VBisanda
tp1060
a(V2453
VJaspura
tp1061
a(V2677
VKamasin
tp1062
a(V3542
VMahua
tp1063
a(V4161
VNaraini
tp1064
a(V6090
VTindwari
tp1065
as(V611
VHapur
tp1066
(lp1067
(V6942
VGarhmukteshwar
tp1068
a(V6943
VSimbhawali
tp1069
a(V6944
VHapur
tp1070
a(V6945
VDhaulana
tp1071
as(V430
VPilibhit
tp1072
(lp1073
(V114
VAmaria
tp1074
a(V609
VBarkhera
tp1075
a(V952
VBilsanda
tp1076
a(V975
VBisalpur
tp1077
a(V3357
VLalauri Khera
tp1078
a(V3722
VMarauri
tp1079
a(V4864
VPuranpur
tp1080
as(V287
VKaushambi
tp1081
(lp1082
(V1106
VChail
tp1083
a(V2750
VKara
tp1084
a(V2861
VKaushambi
tp1085
a(V3686
VManjhanpur
tp1086
a(V3915
VMooratganj
tp1087
a(V4284
VNewada
tp1088
a(V5423
VSarsawan
tp1089
a(V5667
VSirathu
tp1090
as(V174
VEtah
tp1091
(lp1092
(V85
VAliganj
tp1093
a(V325
VAwagarh
tp1094
a(V2368
VJaithra
tp1095
a(V2394
VJalesar
tp1096
a(V3728
VMarhara
tp1097
a(V4294
VNidhauli Kalan
tp1098
a(V5286
VSakit
tp1099
a(V5547
VSheetalpur
tp1100
as(V436
VPratapgarh
tp1101
(lp1102
(V272
VAspur Deosara
tp1103
a(V335
VBabaganj
tp1104
a(V915
VBihar
tp1105
a(V1893
VGaura
tp1106
a(V2607
VKalakankar
tp1107
a(V3253
VKunda
tp1108
a(V3359
VLalganj
tp1109
a(V3398
VLaxmanpur
tp1110
a(V3645
VMandhata
tp1111
a(V3670
VMangraura
tp1112
a(V4636
VPatti
tp1113
a(V5066
VRampur Sangramgarh
tp1114
a(V5230
VSadar
tp1115
a(V5344
VSandwa Chandika
tp1116
a(V5354
VSangipur
tp1117
a(V5581
VShivgarh
tp1118
as(V212
VHamirpur
tp1119
(lp1120
(V1975
VGohand
tp1121
a(V3277
VKurara
tp1122
a(V3775
VMaudaha
tp1123
a(V4021
VMuskara
tp1124
a(V5117
VRath
tp1125
a(V5414
VSarila
tp1126
a(V5804
VSumerpur
tp1127
as(V185
VG.B. Nagar
tp1128
(lp1129
(V989
VBisrakh
tp1130
a(V1392
VDadri
tp1131
a(V1429
VDankaur
tp1132
a(V2481
VJewar
tp1133
as(V80
VBijnor
tp1134
(lp1135
(V25
VAfzalgarh
tp1136
a(V1549
VDhampur
tp1137
a(V2110
VHaldaur
tp1138
a(V2398
VJalilpur
tp1139
a(V3042
VKiratpur
tp1140
a(V3186
VKotwali
tp1141
a(V3894
VMohd. Pur Deomal
tp1142
a(V4096
VNajibabad
tp1143
a(V4268
VNehtaur
tp1144
a(V4340
VNoorpur
tp1145
a(V5483
VSeohara
tp1146
as(V37
VBaghpat
tp1147
(lp1148
(V384
VBaghpat
tp1149
a(V576
VBaraut
tp1150
a(V955
VBinauli
tp1151
a(V1255
VChhaprauli
tp1152
a(V2995
VKhekra
tp1153
a(V4750
VPilana
tp1154
as(V199
VGonda
tp1155
(lp1156
(V342
VBabhanjot
tp1157
a(V712
VBelsar
tp1158
a(V1254
VChhapiya
tp1159
a(V1367
VColonelganj
tp1160
a(V2111
VHaldharmau
tp1161
a(V2302
VIntiyathok
tp1162
a(V2494
VJhanijhri
tp1163
a(V2846
VKatrabazar
tp1164
a(V3693
VMankapur
tp1165
a(V3959
VMujehna
tp1166
a(V4242
VNawabganj
tp1167
a(V4506
VPandari Kripal
tp1168
a(V4551
VParaspur
tp1169
a(V5212
VRupaiyeedeeh
tp1170
a(V5915
VTarabganj
tp1171
a(V6432
VWazeer Ganj
tp1172
as(V338
VLucknow
tp1173
(lp1174
(V433
VBakshi Ka Talab
tp1175
a(V1296
VChinhat
tp1176
a(V2019
VGosaiganj
tp1177
a(V2598
VKakori
tp1178
a(V3593
VMalihabad
tp1179
a(V3600
VMall
tp1180
a(V3887
VMohanlalganj
tp1181
a(V5417
VSarojininagar
tp1182
as(V176
VFaizabad
tp1183
(lp1184
(V109
VAmaniganj
tp1185
a(V935
VBikapur
tp1186
a(V2151
VHaringtonganj
tp1187
a(V3753
VMasodha
tp1188
a(V3783
VMawai
tp1189
a(V3793
VMaya Bazar
tp1190
a(V3858
VMilkipur
tp1191
a(V4861
VPura Bazar
tp1192
a(V5201
VRudauli
tp1193
a(V5709
VSohawal
tp1194
a(V5932
VTarun
tp1195
as(V273
VKanpur Dehat
tp1196
(lp1197
(V52
VAkabarpur
tp1198
a(V159
VAmraudha
tp1199
a(V1516
VDerapur
tp1200
a(V2502
VJhinjhak
tp1201
a(V3558
VMaitha
tp1202
a(V3583
VMalasa
tp1203
a(V4998
VRajpur
tp1204
a(V5113
VRasoolabad
tp1205
a(V5337
VSandalpur
tp1206
a(V5427
VSarwan Khera
tp1207
as(V358
VMathura
tp1208
(lp1209
(V446
VBaldev
tp1210
a(V1193
VChata
tp1211
a(V1203
VChaumuha
tp1212
a(V1759
VFarah
tp1213
a(V2026
VGoverdhan
tp1214
a(V3709
VManth
tp1215
a(V3765
VMathura
tp1216
a(V4088
VNahjheel
tp1217
a(V4138
VNandgaon
tp1218
a(V5132
VRaya
tp1219
as(V202
VGorakhpur
tp1220
(lp1221
(V537
VBansgaon
tp1222
a(V591
VBarhalganj
tp1223
a(V702
VBelghat
tp1224
a(V817
VBhathat
tp1225
a(V1048
VBrahmpur
tp1226
a(V1092
VCampierganj
tp1227
a(V1187
VChargawan
tp1228
a(V1802
VGagha
tp1229
a(V1979
VGola
tp1230
a(V2543
VJungle Kaudia
tp1231
a(V2860
VKauri Ram
tp1232
a(V2922
VKhajani
tp1233
a(V3014
VKhorabar
tp1234
a(V4462
VPali
tp1235
a(V4768
VPipraich
tp1236
a(V4770
VPiprauli
tp1237
a(V5262
VSahjanwa
tp1238
a(V5409
VSardarnagar
tp1239
a(V6232
VUrwa
tp1240
as(V179
VFarrukhabad
tp1241
(lp1242
(V359
VBadhpur
tp1243
a(V2584
VKaimganj
tp1244
a(V2672
VKamalganj
tp1245
a(V3881
VMohammadabad
tp1246
a(V4240
VNawabganj
tp1247
a(V4975
VRajepur
tp1248
a(V5528
VShamashabad
tp1249
as(V513
VSitapur
tp1250
(lp1251
(V92
VAliya
tp1252
a(V692
VBehta
tp1253
a(V991
VBiswan
tp1254
a(V1996
VGondlamau
tp1255
a(V2144
VHargaon
tp1256
a(V2818
VKasmanda
tp1257
a(V2916
VKhairabad
tp1258
a(V3326
VLaharpur
tp1259
a(V3463
VMachrehta
tp1260
a(V3535
VMahmoodabad
tp1261
a(V3537
VMaholi
tp1262
a(V3868
VMishrikh
tp1263
a(V4428
VPahla
tp1264
a(V4575
VParsendi
tp1265
a(V4776
VPisawan
tp1266
a(V5071
VRampurmathura
tp1267
a(V5160
VReosa
tp1268
a(V5291
VSakran
tp1269
a(V5604
VSidhauli
tp1270
as(V193
VGhaziabad
tp1271
(lp1272
(V874
VBhojpur
tp1273
a(V3438
VLoni
tp1274
a(V4003
VMuradnagar
tp1275
a(V4968
VRajapur
tp1276
as(V194
VGhazipur
tp1277
(lp1278
(V556
VBarachawar
tp1279
a(V750
VBhadaura
tp1280
a(V835
VBhawarkol
tp1281
a(V963
VBirano
tp1282
a(V1501
VDeokali
tp1283
a(V1937
VGhazipur (Sadar)
tp1284
a(V2373
VJakhania
tp1285
a(V2412
VJamania
tp1286
a(V2758
VKaranda
tp1287
a(V2813
VKasimabad
tp1288
a(V3677
VManihari
tp1289
a(V3720
VMaradah
tp1290
a(V3958
VMuhammadabad
tp1291
a(V5162
VReotipur
tp1292
a(V5234
VSadat
tp1293
a(V5269
VSaidpur
tp1294
as(V274
VKanpur Nagar
tp1295
(lp1296
(V862
VBhitargaon
tp1297
a(V911
VBidhunu
tp1298
a(V949
VBilhaur
tp1299
a(V1199
VChaubeypur
tp1300
a(V1927
VGhatampur
tp1301
a(V2601
VKakvan
tp1302
a(V2667
VKalyanpur
tp1303
a(V4597
VPatara
tp1304
a(V5421
VSarsaul
tp1305
a(V5584
VShivrajpur
tp1306
as(V348
VMainpuri
tp1307
(lp1308
(V612
VBarnahal
tp1309
a(V739
VBewar
tp1310
a(V1939
VGhiror
tp1311
a(V2345
VJagir
tp1312
a(V2776
VKarhal
tp1313
a(V3052
VKishni
tp1314
a(V3279
VKurawali
tp1315
a(V3555
VMainpuri
tp1316
a(V5796
VSultanganj
tp1317
as(V326
VLakhimpur-Kherii
tp1318
(lp1319
(V525
VBankeyganj
tp1320
a(V689
VBehjam
tp1321
a(V933
VBijuwa
tp1322
a(V1605
VDhaurahara
tp1323
a(V2309
VIsanager
tp1324
a(V3249
VKumbhi / Gola
tp1325
a(V3341
VLakhimpur
tp1326
a(V3869
VMitauli
tp1327
a(V3884
VMohammdi
tp1328
a(V4097
VNakaha
tp1329
a(V4296
VNighasan
tp1330
a(V4470
VPaliya
tp1331
a(V4587
VPasgawan
tp1332
a(V4737
VPhoolbehar
tp1333
a(V5044
VRamia Behar
tp1334
as(V218
VHathras
tp1335
(lp1336
(V2177
VHasayan
tp1337
a(V2190
VHathras
tp1338
a(V4013
VMursan
tp1339
a(V5228
VSadabad
tp1340
a(V5264
VSahpau
tp1341
a(V5428
VSasani
tp1342
a(V5622
VSikendra-Rao
tp1343
as(V59
VBasti
tp1344
(lp1345
(V398
VBahadurpur
tp1346
a(V522
VBankati
tp1347
a(V657
VBasti Sadar
tp1348
a(V1892
VGaur
tp1349
a(V2163
VHarraiya
tp1350
a(V2746
VKaptan Ganj
tp1351
a(V3224
VKudraha
tp1352
a(V4553
VParasurampur
tp1353
a(V5011
VRam Nagar
tp1354
a(V5203
VRudhauli
tp1355
a(V5307
VSaltauwa Gopalpur
tp1356
a(V5448
VSaun Ghat
tp1357
a(V6367
VVikramjot
tp1358
as(V369
VMoradabad
tp1359
(lp1360
(V762
VBhagatpur Tanda
tp1361
a(V940
VBilari
tp1362
a(V1251
VChhajlet
tp1363
a(V1634
VDilari
tp1364
a(V1642
VDingarpur
tp1365
a(V3918
VMoradabad
tp1366
a(V3987
VMundapandey
tp1367
a(V5971
VThakurdwara
tp1368
as(V184
VFirozabad
tp1369
(lp1370
(V43
VAika
tp1371
a(V224
VAraon
tp1372
a(V1785
VFirozabad
tp1373
a(V2455
VJasrana
tp1374
a(V2918
VKhairgarh
tp1375
a(V3466
VMadanpur
tp1376
a(V4192
VNarkhi
tp1377
a(V5567
VShikohabad
tp1378
a(V6153
VTundla
tp1379
as(V629
VSambhal
tp1380
(lp1381
(V7031
VSambhal
tp1382
a(V7032
VBahjoi
tp1383
a(V7033
VPawansa
tp1384
a(V7034
VAsmoli
tp1385
a(V7035
VBaniyakhera
tp1386
a(V7036
VGunnaur
tp1387
a(V7037
VJunawai
tp1388
a(V7038
VRajpura
tp1389
as(V530
VSultanpur
tp1390
(lp1391
(V56
VAkhandnagar
tp1392
a(V448
VBaldirai
tp1393
a(V748
VBhadaiya
tp1394
a(V1430
VDanpatganj
tp1395
a(V1671
VDostpur
tp1396
a(V1719
VDuvepur
tp1397
a(V2365
VJaisinghpur
tp1398
a(V2570
VKadipur
tp1399
a(V3281
VKurebhar
tp1400
a(V3299
VKurwar
tp1401
a(V3369
VLambhua
tp1402
a(V3938
VMotigarpur
tp1403
a(V4577
VPartapur Kamaicha
tp1404
as(V632
VAmethi
tp1405
(lp1406
(V7051
VAmethi
tp1407
a(V7052
VBhetua
tp1408
a(V7053
VBhadar
tp1409
a(V7054
VSangrampur
tp1410
a(V7055
VGauriganj
tp1411
a(V7056
VJamo
tp1412
a(V7057
VShahgarh
tp1413
a(V7058
VJagdishpur
tp1414
a(V7059
VBazar Shukla
tp1415
a(V7060
VMusafirkhana
tp1416
a(V7061
VTiloi
tp1417
a(V7062
VBahadurpur
tp1418
a(V7063
VSinghpur
tp1419
as(V502
VSiddharathnagar
tp1420
(lp1421
(V334
VBaansi
tp1422
a(V598
VBarhni
tp1423
a(V802
VBhanwapur
tp1424
a(V966
VBirdpur
tp1425
a(V1696
VDumariaganj
tp1426
a(V2325
VItwa
tp1427
a(V2520
VJogiya
tp1428
a(V3002
VKhesraha
tp1429
a(V3227
VKuhniyaon
tp1430
a(V3871
VMithwal
tp1431
a(V4230
VNaugarh
tp1432
a(V5586
VShohratgarh
tp1433
a(V6235
VUska
tp1434
as(V232
VJ.B.F.Nagar
tp1435
(lp1436
(V163
VAmroha
tp1437
a(V1553
VDhanaura
tp1438
a(V1812
VGajraula
tp1439
a(V1852
VGangeshwari
tp1440
a(V2174
VHasanpur
tp1441
a(V2532
VJoya
tp1442
as(V631
VKasganj
tp1443
(lp1444
(V7044
VPatiyali
tp1445
a(V7045
VGanjdundwara
tp1446
a(V7046
VSidhpura
tp1447
a(V7047
VAmanpur
tp1448
a(V7048
VSoron
tp1449
a(V7049
VSahawar
tp1450
a(V7050
VKasganj
tp1451
as(V252
VJaunpur
tp1452
(lp1453
(V351
VBadalapur
tp1454
a(V620
VBarsathi
tp1455
a(V1085
VBuxa
tp1456
a(V1588
VDharmapur
tp1457
a(V1649
VDobhi
tp1458
a(V2385
VJalalpur
tp1459
a(V2762
VKaranja Kala
tp1460
a(V2886
VKerakat
tp1461
a(V3029
VKhutahan
tp1462
a(V3457
VMachhali Shahar
tp1463
a(V3521
VMaharajganj
tp1464
a(V3731
VMariyahun
tp1465
a(V3956
VMuftiganj
tp1466
a(V3997
VMungra Badshapur
tp1467
a(V5013
VRam Nagar
tp1468
a(V5059
VRampur
tp1469
a(V5509
VShahganj
tp1470
a(V5626
VSikrara
tp1471
a(V5673
VSirkoni
tp1472
a(V5782
VSuitha Kala
tp1473
a(V5783
VSujanganj
tp1474
as(V241
VJalaun
tp1475
(lp1476
(V1402
VDakor
tp1477
a(V2391
VJalaun
tp1478
a(V2562
VKadaura
tp1479
a(V3111
VKonch
tp1480
a(V3310
VKuthond
tp1481
a(V3484
VMadhogarh
tp1482
a(V3529
VMahewa
tp1483
a(V4050
VNadigaon
tp1484
a(V5068
VRampura
tp1485
as(V375
VMuzaffarnagar
tp1486
(lp1487
(V385
VBaghra
tp1488
a(V1058
VBudhana
tp1489
a(V1191
VCharthawal
tp1490
a(V2443
VJansath
tp1491
a(V2982
VKhatauli
tp1492
a(V3926
VMorna
tp1493
a(V4032
VMuzaffarnagar
tp1494
a(V4869
VPurkazi
tp1495
a(V5248
VSahapur
tp1496
as(V9
VAligarh
tp1497
(lp1498
(V66
VAkrabad
tp1499
a(V298
VAtrauli
tp1500
a(V928
VBijauli
tp1501
a(V1160
VChandosh
tp1502
a(V1559
VDhanipur
tp1503
a(V1854
VGangiri
tp1504
a(V1992
VGonda
tp1505
a(V2282
VIglas
tp1506
a(V2469
VJawan
tp1507
a(V2913
VKhair
tp1508
a(V3422
VLodha
tp1509
a(V5914
VTappal
tp1510
as(V500
VShravasti
tp1511
(lp1512
(V1955
VGilaula
tp1513
a(V2165
VHarriharpur Rani
tp1514
a(V2283
VIkauna
tp1515
a(V2432
VJamunha
tp1516
a(V4649
VPayagpur
tp1517
a(V5682
VSirsia
tp1518
a(V6382
VVisheshwarganj
tp1519
as(V270
VKannauj
tp1520
(lp1521
(V1272
VChibramau
tp1522
a(V2178
VHaseran
tp1523
a(V2382
VJalalabad
tp1524
a(V2732
VKannauj
tp1525
a(V4299
VNil
tp1526
a(V5450
VSaurikh
tp1527
a(V5871
VTalgram
tp1528
a(V6200
VUmarda
tp1529
as(V53
VBareilly
tp1530
(lp1531
(V72
VAlampur Jafrabad
tp1532
a(V406
VBaheri
tp1533
a(V754
VBhadhpura
tp1534
a(V873
VBhojipura
tp1535
a(V896
VBhuta
tp1536
a(V994
VBithri Chainpur
tp1537
a(V1417
VDamkhoda
tp1538
a(V1763
VFaridpur
tp1539
a(V1769
VFatehganj(West)
tp1540
a(V3056
VKiyara
tp1541
a(V3562
VMajhgawan
tp1542
a(V3809
VMeerganj
tp1543
a(V4244
VNawabganj
tp1544
a(V5056
VRamnager
tp1545
a(V5560
VShergrah
tp1546
as(V114
VChitrakoot
tp1547
(lp1548
(V1325
VChitrakoot
tp1549
a(V3681
VManikpur
tp1550
a(V3773
VMau
tp1551
a(V4425
VPahari
tp1552
a(V5050
VRamnagar
tp1553
as(V457
VRampur
tp1554
(lp1555
(V943
VBilaspur
tp1556
a(V1139
VChamrawa
tp1557
a(V3857
VMilak
tp1558
a(V5268
VSaidnagar
tp1559
a(V5504
VShahbad
tp1560
a(V5777
VSuar
tp1561
as(V103
VChandauli
tp1562
(lp1563
(V559
VBarahani
tp1564
a(V1103
VChahania
tp1565
a(V1118
VChakiya
tp1566
a(V1150
VChandauli
tp1567
a(V1551
VDhanapur
tp1568
a(V4229
VNaugarh
tp1569
a(V4326
VNiyamatabad
tp1570
a(V5283
VSakaldiha
tp1571
a(V5501
VShahabganj
tp1572
as(V493
VShahjahanpur
tp1573
(lp1574
(V493
VBanda
tp1575
a(V830
VBhawal Khera
tp1576
a(V1391
VDadraul
tp1577
a(V2380
VJalalabad
tp1578
a(V2461
VJatipur
tp1579
a(V2613
VKalan
tp1580
a(V2738
VKanth
tp1581
a(V2845
VKatra Khudaganj
tp1582
a(V3031
VKhuttar
tp1583
a(V3494
VMadnapur
tp1584
a(V3867
VMirzapur
tp1585
a(V4297
VNigohi
tp1586
a(V4819
VPowayan
tp1587
a(V5649
VSindhauli
tp1588
a(V6087
VTilhar
tp1589
as(V175
VEtawah
tp1590
(lp1591
(V599
VBarhpura
tp1592
a(V651
VBasrehar
tp1593
a(V813
VBharthana
tp1594
a(V1114
VChakarnagar
tp1595
a(V2456
VJaswantnagar
tp1596
a(V3530
VMahewah
tp1597
a(V5270
VSaifai
tp1598
a(V5857
VTakha
tp1599
ass(V32
VTripura
tp1600
(dp1601
(V144
VDhalai
tp1602
(lp1603
(V134
VAmbassa
tp1604
a(V1212
VChawmanu
tp1605
a(V1698
VDumburnagar
tp1606
a(V3713
VManu
tp1607
a(V5301
VSalema
tp1608
as(V406
VNorth Tripura
tp1609
(lp1610
(V1413
VDamcherra
tp1611
a(V1457
VDasda
tp1612
a(V2025
VGournagar
tp1613
a(V2427
VJampuihill
tp1614
a(V2560
VKadamtala
tp1615
a(V3244
VKumarghat
tp1616
a(V4520
VPanisagar
tp1617
a(V4690
VPencharthal
tp1618
as(V526
VSouth Tripura
tp1619
(lp1620
(V118
VAmarpur
tp1621
a(V370
VBagafa
tp1622
a(V2251
VHrishyamukh
tp1623
a(V2599
VKakraban
tp1624
a(V2769
VKarbook
tp1625
a(V3034
VKilla
tp1626
a(V3757
VMatarbari
tp1627
a(V4988
VRajnagar
tp1628
a(V5211
VRupaichari
tp1629
a(V5436
VSatchand
tp1630
as(V596
VWest Tripura
tp1631
(lp1632
(V979
VBishalghar
tp1633
a(V1044
VBoxanagar
tp1634
a(V1690
VDukli
tp1635
a(V2209
VHezamara
tp1636
a(V2426
VJampaijala
tp1637
a(V2512
VJirania
tp1638
a(V2664
VKalyanpur
tp1639
a(V2828
VKathalia
tp1640
a(V3017
VKhowai
tp1641
a(V3633
VMandai
tp1642
a(V3828
VMelaghar
tp1643
a(V3890
VMohanpur
tp1644
a(V4417
VPadmabil
tp1645
a(V5949
VTeliamura
tp1646
a(V6146
VTulasikhar
tp1647
ass(V2
VAndhra Pradesh
tp1648
(dp1649
(V591
VWest Godavari
tp1650
(lp1651
(V12
VAchanta
tp1652
a(V59
VAKIVIDU
tp1653
a(V305
VAttili
tp1654
a(V839
VBheemavaram
tp1655
a(V853
VBhimadole
tp1656
a(V1084
VButtayagudem
tp1657
a(V1102
VChagallu
tp1658
a(V1305
VChintalapudi
tp1659
a(V1491
VDenduluru
tp1660
a(V1527
VDevarapalle
tp1661
a(V1722
VDwaraka Tirumala
tp1662
a(V1741
VEluru
tp1663
a(V1825
VGanapavaram
tp1664
a(V2003
VGopalapuram
tp1665
a(V2304
VIragavaram
tp1666
a(V2439
VJangareddigudem
tp1667
a(V2477
VJeelugumilli
tp1668
a(V2641
VKalla
tp1669
a(V2678
VKamavarapukota
tp1670
a(V3190
VKovvur
tp1671
a(V3194
VKoyyalagudem
tp1672
a(V3417
VLingapalem
tp1673
a(V3878
VMogalthur
tp1674
a(V4115
VNallajerla
tp1675
a(V4164
VNarasapuram
tp1676
a(V4291
VNidadavole
tp1677
a(V4293
VNidamarru
tp1678
a(V4443
VPalacole
tp1679
a(V4446
VPalakoderu
tp1680
a(V4663
VPedapadu
tp1681
a(V4666
VPedavegi
tp1682
a(V4696
VPentapadu
tp1683
a(V4700
VPenugonda
tp1684
a(V4701
VPenumantra
tp1685
a(V4706
VPeravali
tp1686
a(V4786
VPoduru
tp1687
a(V4793
VPolavaram
tp1688
a(V5838
VT Narasapuram
tp1689
a(V5847
VTadepalligudem
tp1690
a(V5907
VTanuku
tp1691
a(V5981
VThallapudi
tp1692
a(V6217
VUndi
tp1693
a(V6218
VUndrajavaram
tp1694
a(V6220
VUnguturu
tp1695
a(V6307
VVeeravasaram
tp1696
a(V6454
VYelamanchili
tp1697
a(V6893
VKukunoor
tp1698
a(V6894
VVelairpad
tp1699
a(V6980
VBurgampadu
tp1700
a(V6981
VBurgampadu
tp1701
as(V400
VNellore
tp1702
(lp1703
(V96
VAllur
tp1704
a(V178
VAnanthasagaram
tp1705
a(V212
VAnumasamudrampeta
tp1706
a(V291
VAtmakur
tp1707
a(V444
VBalayapalle
tp1708
a(V1007
VBogole
tp1709
a(V1083
VButchireddipalem
tp1710
a(V1222
VChejerla
tp1711
a(V1289
VChillakur
tp1712
a(V1329
VChittamur
tp1713
a(V1395
VDagadarthi
tp1714
a(V1401
VDakkili
tp1715
a(V1667
VDoravarisatram
tp1716
a(V1718
VDuttalur
tp1717
a(V2049
VGudur
tp1718
a(V2299
VIndukurpet
tp1719
a(V2378
VJaladanki
tp1720
a(V2635
VKaligiri
tp1721
a(V2658
VKaluvoya
tp1722
a(V2862
VKavali
tp1723
a(V3065
VKodavalur
tp1724
a(V3116
VKondapuram
tp1725
a(V3151
VKota
tp1726
a(V3189
VKovur
tp1727
a(V3714
VManubolu
tp1728
a(V3738
VMarripadu
tp1729
a(V4028
VMuthukur
tp1730
a(V4089
VNaidupeta
tp1731
a(V4274
VNellore
tp1732
a(V4378
VOjili
tp1733
a(V4686
VPellakur
tp1734
a(V4785
VPodlakur
tp1735
a(V5107
VRapur
tp1736
a(V5345
VSangam
tp1737
a(V5467
VSeetharamapuram
tp1738
a(V5792
VSullurpeta
tp1739
a(V5837
VSydapuram
tp1740
a(V5846
VTada
tp1741
a(V6057
VThotapalligudur
tp1742
a(V6176
VUdayagiri
tp1743
a(V6266
VVakadu
tp1744
a(V6288
VVarikuntapadu
tp1745
a(V6335
VVenkatachalam
tp1746
a(V6336
VVenkatagiri
tp1747
a(V6351
VVidavalur
tp1748
a(V6371
VVinjamur
tp1749
as(V167
VEast Godavari
tp1750
(lp1751
(V20
VAddateegala
tp1752
a(V44
VAinavilli
tp1753
a(V73
VAlamuru
tp1754
a(V95
VAllavaram
tp1755
a(V106
VAmalapuram
tp1756
a(V128
VAmbajipeta
tp1757
a(V179
VAnaparthi
tp1758
a(V300
VAtreyapuram
tp1759
a(V901
VBiccavolu
tp1760
a(V1533
VDevipatnam
tp1761
a(V1829
VGandepalle
tp1762
a(V1850
VGangavaram
tp1763
a(V1977
VGokavaram
tp1764
a(V1989
VGollaprolu
tp1765
a(V2269
VI Polavaram
tp1766
a(V2343
VJaggampeta
tp1767
a(V2569
VKadiam
tp1768
a(V2589
VKajuluru
tp1769
a(V2594
VKakinada (Rural)
tp1770
a(V2744
VKapileswarapuram
tp1771
a(V2767
VKarapa
tp1772
a(V2847
VKatrenikona
tp1773
a(V3045
VKirlampudi
tp1774
a(V3142
VKorukonda
tp1775
a(V3155
VKotananduru
tp1776
a(V3167
VKothapalli
tp1777
a(V3169
VKothapeta
tp1778
a(V3594
VMalikipuram
tp1779
a(V3616
VMamidikuduru
tp1780
a(V3641
VMandapeta
tp1781
a(V3724
VMaredumilli
tp1782
a(V3980
VMummidivaram
tp1783
a(V4402
VP Gannavaram
tp1784
a(V4484
VPamarru
tp1785
a(V4665
VPedapudi
tp1786
a(V4676
VPeddapuram
tp1787
a(V4777
VPithapuram
tp1788
a(V4831
VPrathipadu
tp1789
a(V4959
VRajahmundry(Rural)
tp1790
a(V4964
VRajanagaram
tp1791
a(V4973
VRajavommangi
tp1792
a(V5019
VRamachandrapuram
tp1793
a(V5057
VRampachodavaram
tp1794
a(V5081
VRangampeta
tp1795
a(V5129
VRavulapalem
tp1796
a(V5137
VRayavaram
tp1797
a(V5139
VRazole
tp1798
a(V5285
VSakhinetipalle
tp1799
a(V5314
VSamalkota
tp1800
a(V5373
VSankhavaram
tp1801
a(V5466
VSeethanagaram
tp1802
a(V5876
VTallarevu
tp1803
a(V6051
VThondangi
tp1804
a(V6155
VTuni
tp1805
a(V6225
VUppalaguptam
tp1806
a(V6441
VY Ramavaram
tp1807
a(V6458
VYeleswaram
tp1808
a(V6890
VChintur
tp1809
a(V6892
VKunavaram
tp1810
a(V6895
VVararamachandrapuram
tp1811
a(V6938
VBhadrachalam
tp1812
as(V528
VSrikakulam
tp1813
(lp1814
(V105
VAmadalavalasa
tp1815
a(V788
VBhamini
tp1816
a(V1079
VBurja
tp1817
a(V1751
VEtcherla
tp1818
a(V1859
VGanguvari Singadam
tp1819
a(V1866
VGara
tp1820
a(V2225
VHiramandalam
tp1821
a(V2275
VIchchapuram
tp1822
a(V2404
VJalumuru
tp1823
a(V2698
VKanchili
tp1824
a(V2867
VKaviti
tp1825
a(V3153
VKotabommili
tp1826
a(V3173
VKothuru
tp1827
a(V3317
VL N Peta
tp1828
a(V3394
VLaveru
tp1829
a(V3643
VMandasa
tp1830
a(V3824
VMeilaputti
tp1831
a(V4142
VNandigam
tp1832
a(V4163
VNarasannapeta
tp1833
a(V4447
VPalakonda
tp1834
a(V4453
VPalasa
tp1835
a(V4609
VPathapatnam
tp1836
a(V4791
VPolaki
tp1837
a(V4800
VPonduru
tp1838
a(V4962
VRajam
tp1839
a(V5077
VRanastalam
tp1840
a(V5145
VRegidiamadalavalasa
tp1841
a(V5382
VSanthabommali
tp1842
a(V5383
VSanthakaviti
tp1843
a(V5408
VSaravakota
tp1844
a(V5424
VSarubujjili
tp1845
a(V5464
VSeethampeta
tp1846
a(V5719
VSompeta
tp1847
a(V5761
VSrikakulam
tp1848
a(V5943
VTekkali
tp1849
a(V6265
VVajrapukothuru
tp1850
a(V6281
VVangara
tp1851
a(V6305
VVeeraghattam
tp1852
as(V583
VVizianagaram
tp1853
(lp1854
(V354
VBadangi
tp1855
a(V459
VBalijipeta
tp1856
a(V871
VBhoghapuram
tp1857
a(V997
VBobbili
tp1858
a(V1025
VBondapalle
tp1859
a(V1219
VCheepurupalle
tp1860
a(V1467
VDattirajeru
tp1861
a(V1492
VDenkada
tp1862
a(V1811
VGajapathinagaram
tp1863
a(V1865
VGantyada
tp1864
a(V1880
VGarividi
tp1865
a(V1888
VGarugubilli
tp1866
a(V2064
VGummalakshmipuram
tp1867
a(V2082
VGurla
tp1868
a(V2417
VJami
tp1869
a(V2515
VJiyyamma Valasa
tp1870
a(V3104
VKomarada
tp1871
a(V3170
VKothavalasa
tp1872
a(V3296
VKurupam
tp1873
a(V3350
VLakkavarapukota
tp1874
a(V3575
VMakkuva
tp1875
a(V3841
VMentada
tp1876
a(V3842
VMerakamudidam
tp1877
a(V4273
VNellimarla
tp1878
a(V4408
VPachipenta
tp1879
a(V4582
VParvathipuram
tp1880
a(V4883
VPusapatirega
tp1881
a(V5016
VRamabhadrapuram
tp1882
a(V5310
VSalur
tp1883
a(V5465
VSeethanagaram
tp1884
a(V5774
VSrungavarapukota
tp1885
a(V6009
VTherlam
tp1886
a(V6341
VVepada
tp1887
a(V6387
VVizianagaram
tp1888
as(V582
VVisakhapatnam
tp1889
(lp1890
(V169
VAnakapalli
tp1891
a(V173
VAnandapuram
tp1892
a(V177
VAnanthagiri
tp1893
a(V219
VAraku Valley
tp1894
a(V279
VAtchutapuram
tp1895
a(V842
VBheemunipatnam
tp1896
a(V1082
VButchayyapeta
tp1897
a(V1218
VCheedikada
tp1898
a(V1292
VChinagadila
tp1899
a(V1306
VChintapalle
tp1900
a(V1340
VChodavaram
tp1901
a(V1526
VDevarapalle
tp1902
a(V1697
VDumbriguda
tp1903
a(V1813
VGajuwaka
tp1904
a(V1846
VGangaraju Madugula
tp1905
a(V1990
VGolugonda
tp1906
a(V2036
VGudem Kothaveedhi
tp1907
a(V2254
VHukumpeta
tp1908
a(V2549
VK Kotapadu
tp1909
a(V2814
VKasimkota
tp1910
a(V3157
VKotauratla
tp1911
a(V3195
VKoyyuru
tp1912
a(V3496
VMadugula
tp1913
a(V3570
VMakavarapalem
tp1914
a(V3982
VMunagapaka
tp1915
a(V3984
VMunchingiputtu
tp1916
a(V4101
VNakkapalli
tp1917
a(V4210
VNarsipatnam
tp1918
a(V4222
VNathavaram
tp1919
a(V4415
VPaderu
tp1920
a(V4418
VPadmanabham
tp1921
a(V4555
VParavada
tp1922
a(V4650
VPayakaraopeta
tp1923
a(V4656
VPedabayalu
tp1924
a(V4658
VPedagantyada
tp1925
a(V4693
VPendurthi
tp1926
a(V5034
VRambilli
tp1927
a(V5127
VRavikamatham
tp1928
a(V5188
VRolugunta
tp1929
a(V5219
VS Rayavaram
tp1930
a(V5226
VSabbavaram
tp1931
a(V6379
VVisakhapatnam
tp1932
a(V6453
VYelamanchili
tp1933
as(V116
VChittoor
tp1934
(lp1935
(V331
VB Kothakota
tp1936
a(V418
VBaireddi Palle
tp1937
a(V508
VBangarupalem
tp1938
a(V1052
VBuchinaidu Khandriga
tp1939
a(V1161
VChandragiri
tp1940
a(V1300
VChinnagottigallu
tp1941
a(V1333
VChittoor
tp1942
a(V1358
VChowdepalle
tp1943
a(V1840
VGangadhara Nellore
tp1944
a(V1849
VGangavaram
tp1945
a(V2043
VGudipala
tp1946
a(V2048
VGudupalle
tp1947
a(V2083
VGurramkonda
tp1948
a(V2305
VIrala
tp1949
a(V2550
VK V P Puram
tp1950
a(V2605
VKalakada
tp1951
a(V2636
VKalikiri
tp1952
a(V2680
VKambhamvaripalle
tp1953
a(V2802
VKarvetinagar
tp1954
a(V3273
VKuppam
tp1955
a(V3275
VKurabalakota
tp1956
a(V3639
VMandanpalle
tp1957
a(V3967
VMulakalacheruvu
tp1958
a(V4056
VNagalapuram
tp1959
a(V4065
VNagari
tp1960
a(V4169
VNarayanavanam
tp1961
a(V4310
VNimmanapalle
tp1962
a(V4312
VNindra
tp1963
a(V4433
VPakala
tp1964
a(V4450
VPalamaner
tp1965
a(V4454
VPalasamudram
tp1966
a(V4669
VPedda Panjani
tp1967
a(V4672
VPeddamandyam
tp1968
a(V4677
VPeddathippasamudram
tp1969
a(V4702
VPenumuru
tp1970
a(V4746
VPichatur
tp1971
a(V4751
VPileru
tp1972
a(V4845
VPulicherla
tp1973
a(V4856
VPunganur
tp1974
a(V4886
VPuthalapattu
tp1975
a(V4889
VPuttur
tp1976
a(V5015
VRama Kuppam
tp1977
a(V5018
VRamachandrapuram
tp1978
a(V5031
VRamasamudram
tp1979
a(V5157
VRenigunta
tp1980
a(V5190
VRompicherla
tp1981
a(V5386
VSanthi Puram
tp1982
a(V5447
VSatyavedu
tp1983
a(V5705
VSodam
tp1984
a(V5716
VSomala
tp1985
a(V5762
VSrikalahasti
tp1986
a(V5770
VSrirangarajapuram
tp1987
a(V5985
VThamballapalle
tp1988
a(V6002
VThavanampalle
tp1989
a(V6059
VThottambedu
tp1990
a(V6100
VTirupati Rural
tp1991
a(V6101
VTirupati Urban
tp1992
a(V6253
VVadamalapeta
tp1993
a(V6286
VVaradaiahpalem
tp1994
a(V6297
VVayalpad
tp1995
a(V6302
VVeduru Kuppam
tp1996
a(V6337
VVenkatagiri Kota
tp1997
a(V6356
VVijaya Puram
tp1998
a(V6444
VYadamari
tp1999
a(V6468
VYerpedu
tp2000
a(V6471
VYerravaripalem
tp2001
as(V206
VGuntur
tp2002
(lp2003
(V10
VAchampeta
tp2004
a(V112
VAmaravathi
tp2005
a(V164
VAmruthalur
tp2006
a(V549
VBapatla
tp2007
a(V707
VBellamkonda
tp2008
a(V823
VBhattiprolu
tp2009
a(V1018
VBollapalle
tp2010
a(V1217
VChebrole
tp2011
a(V1243
VCherukupalle
tp2012
a(V1284
VChilakaluripet
tp2013
a(V1387
VDachepalle
tp2014
a(V1688
VDuggirala
tp2015
a(V1716
VDurgi
tp2016
a(V1727
VEdlapadu
tp2017
a(V2075
VGuntur
tp2018
a(V2078
VGurazala
tp2019
a(V2303
VIpuru
tp2020
a(V2600
VKakumanu
tp2021
a(V2772
VKarempudi
tp2022
a(V2787
VKarlapalem
tp2023
a(V3100
VKollipara
tp2024
a(V3101
VKollur
tp2025
a(V3209
VKrosuru
tp2026
a(V3455
VMachavaram
tp2027
a(V3456
VMacherla
tp2028
a(V3662
VMangalagiri
tp2029
a(V3806
VMedikonduru
tp2030
a(V4002
VMuppalla
tp2031
a(V4048
VNadendla
tp2032
a(V4064
VNagaram
tp2033
a(V4098
VNakarikallu
tp2034
a(V4165
VNarasaraopeta
tp2035
a(V4329
VNizampatnam
tp2036
a(V4361
VNuzendla
tp2037
a(V4659
VPedakakani
tp2038
a(V4660
VPedakurapadu
tp2039
a(V4662
VPedanandipadu
tp2040
a(V4734
VPhirangipuram
tp2041
a(V4748
VPiduguralla
tp2042
a(V4780
VPittalavanipalem
tp2043
a(V4806
VPonnur
tp2044
a(V4832
VPrathipadu
tp2045
a(V5007
VRajupalem
tp2046
a(V5158
VRentachintala
tp2047
a(V5163
VRepalle
tp2048
a(V5189
VRompicherla
tp2049
a(V5444
VSattenapalle
tp2050
a(V5451
VSavalyapuram
tp2051
a(V5848
VTadikonda
tp2052
a(V5953
VTenali
tp2053
a(V5968
VThadepalle
tp2054
a(V6067
VThullur
tp2055
a(V6141
VTsundur
tp2056
a(V6295
VVatticherukuru
tp2057
a(V6312
VVeldurthi
tp2058
a(V6332
VVemuru
tp2059
a(V6372
VVinukonda
tp2060
as(V315
VKrishna
tp2061
(lp2062
(V2
VA Konduru
tp2063
a(V33
VAgiripalle
tp2064
a(V321
VAvanigadda
tp2065
a(V545
VBantumilli
tp2066
a(V551
VBapulapadu
tp2067
a(V1129
VChallapalli
tp2068
a(V1149
VChandarlapadu
tp2069
a(V1197
VChatrai
tp2070
a(V1790
VG Konduru
tp2071
a(V1824
VGampalagudem
tp2072
a(V1864
VGannavaram
tp2073
a(V1919
VGhantasala
tp2074
a(V2044
VGudivada
tp2075
a(V2046
VGudlavalleru
tp2076
a(V2050
VGudur
tp2077
a(V2272
VIbrahimpatnam
tp2078
a(V2344
VJaggayyapeta
tp2079
a(V2582
VKaikalur
tp2080
a(V2633
VKalidindi
tp2081
a(V2697
VKanchika Cherla
tp2082
a(V2727
VKankipadu
tp2083
a(V3074
VKoduru
tp2084
a(V3211
VKruthivennu
tp2085
a(V3461
VMachilipatnam
tp2086
a(V3644
VMandavalli
tp2087
a(V3916
VMopidevi
tp2088
a(V3942
VMovva
tp2089
a(V3952
VMudinepalli
tp2090
a(V4024
VMusunuru
tp2091
a(V4035
VMylavaram
tp2092
a(V4070
VNagayalanka
tp2093
a(V4143
VNandigama
tp2094
a(V4147
VNandivada
tp2095
a(V4362
VNuzvid
tp2096
a(V4485
VPamarru
tp2097
a(V4488
VPamidimukkala
tp2098
a(V4661
VPedana
tp2099
a(V4664
VPedaparupudi
tp2100
a(V4689
VPenamaluru
tp2101
a(V4699
VPenuganchiprolu
tp2102
a(V5144
VReddigudem
tp2103
a(V6058
VThotlavalluru
tp2104
a(V6111
VTiruvuru
tp2105
a(V6219
VUnguturu
tp2106
a(V6294
VVatsavai
tp2107
a(V6308
VVeerullapadu
tp2108
a(V6357
VVijayawada Rural
tp2109
a(V6358
VVijayawada Urban
tp2110
a(V6385
VVissannapet
tp2111
a(V6391
VVuyyuru
tp2112
as(V122
VCuddapah
tp2113
(lp2114
(V289
VAtlur
tp2115
a(V330
VB Kodur
tp2116
a(V332
VB Mattam
tp2117
a(V368
VBadvel
tp2118
a(V1089
VC K Dinne
tp2119
a(V1122
VChakrayapet
tp2120
a(V1182
VChapadu
tp2121
a(V1236
VChennur
tp2122
a(V1301
VChinnamandem
tp2123
a(V1336
VChitvel
tp2124
a(V1376
VCuddapah
tp2125
a(V1720
VDuvvur
tp2126
a(V1815
VGaliveedu
tp2127
a(V2008
VGopavaram
tp2128
a(V2421
VJammalamadugu
tp2129
a(V2618
VKalasapadu
tp2130
a(V2671
VKamalapuram
tp2131
a(V2924
VKhajipet
tp2132
a(V3073
VKodur
tp2133
a(V3117
VKondapuram
tp2134
a(V3351
VLakkireddipalle
tp2135
a(V3414
VLingala
tp2136
a(V3945
VMuddanur
tp2137
a(V4033
VMydukur
tp2138
a(V4036
VMylavaram
tp2139
a(V4134
VNandalur
tp2140
a(V4370
VObulavaripalle
tp2141
a(V4673
VPeddamudium
tp2142
a(V4688
VPenagaluru
tp2143
a(V4691
VPendlimarri
tp2144
a(V4814
VPorumamilla
tp2145
a(V4835
VProddutur
tp2146
a(V4847
VPulivendla
tp2147
a(V4851
VPullampeta
tp2148
a(V4963
VRajampet
tp2149
a(V5005
VRaju Palem
tp2150
a(V5030
VRamapuram
tp2151
a(V5133
VRayachoti
tp2152
a(V5218
VS A Kasinayana
tp2153
a(V5320
VSambepalle
tp2154
a(V5607
VSidhout
tp2155
a(V5641
VSimhadripuram
tp2156
a(V5841
VT Sundupalle
tp2157
a(V6052
VThondur
tp2158
a(V6249
VV N Palli
tp2159
a(V6274
VVallur
tp2160
a(V6304
VVeeraballe
tp2161
a(V6327
VVempalle
tp2162
a(V6329
VVemula
tp2163
a(V6389
VVontimitta
tp2164
a(V6470
VYerraguntla
tp2165
as(V319
VKurnool
tp2166
(lp2167
(V24
VAdoni
tp2168
a(V94
VAllagadda
tp2169
a(V102
VAlur
tp2170
a(V270
VAspari
tp2171
a(V292
VAtmakur
tp2172
a(V490
VBanaganapalle
tp2173
a(V496
VBandi Atmakur
tp2174
a(V735
VBethamcherla
tp2175
a(V1090
VC.Belagal
tp2176
a(V1101
VChagalamarri
tp2177
a(V1315
VChippagiri
tp2178
a(V1524
VDevanakonda
tp2179
a(V1613
VDhone
tp2180
a(V1670
VDornipadu
tp2181
a(V1798
VGadivemula
tp2182
a(V1998
VGonegandla
tp2183
a(V2020
VGospadu
tp2184
a(V2052
VGudur
tp2185
a(V2109
VHalaharvi
tp2186
a(V2236
VHolagunda
tp2187
a(V2546
VJupadu Bungalow
tp2188
a(V2646
VKallur
tp2189
a(V3071
VKodumur
tp2190
a(V3081
VKoilkuntla
tp2191
a(V3093
VKolimigundla
tp2192
a(V3146
VKosigi
tp2193
a(V3166
VKothapalle
tp2194
a(V3192
VKowthalam
tp2195
a(V3203
VKrishnagiri
tp2196
a(V3287
VKurnool
tp2197
a(V3472
VMaddikera East
tp2198
a(V3518
VMahanandi
tp2199
a(V3712
VMantralayam
tp2200
a(V3854
VMidthur
tp2201
a(V4136
VNandavaram
tp2202
a(V4141
VNandi Kotkur
tp2203
a(V4151
VNandyal
tp2204
a(V4395
VOrvakal
tp2205
a(V4401
VOwk
tp2206
a(V4422
VPagidyala
tp2207
a(V4492
VPamulapadu
tp2208
a(V4532
VPanyam
tp2209
a(V4638
VPattikonda
tp2210
a(V4653
VPeapally
tp2211
a(V4668
VPedda Kadubur
tp2212
a(V5206
VRudravaram
tp2213
a(V5368
VSanjamala
tp2214
a(V5685
VSirvel
tp2215
a(V5771
VSrisailam
tp2216
a(V6144
VTuggali
tp2217
a(V6247
VUyyalawada
tp2218
a(V6311
VVeldurthi
tp2219
a(V6314
VVelgodu
tp2220
a(V6464
VYemmiganur
tp2221
as(V227
VHyderabad
tp2222
(lp2223
(V138
VAmberpet
tp2224
a(V144
VAmeerpet
tp2225
a(V265
VAsifnagar
tp2226
a(V402
VBahadurpura
tp2227
a(V499
VBandlaguda
tp2228
a(V1189
VCharminar
tp2229
a(V1987
VGolconda
tp2230
a(V2214
VHimayathnagar
tp2231
a(V2921
VKhairthabad
tp2232
a(V3736
VMarredpally
tp2233
a(V4019
VMusheerabad
tp2234
a(V4127
VNampally
tp2235
a(V5265
VSaidabad
tp2236
a(V5461
VSecunderabad
tp2237
a(V5525
VShaikpet
tp2238
a(V6095
VTirmalgiry
tp2239
as(V434
VPrakasam
tp2240
(lp2241
(V19
VAddanki
tp2242
a(V232
VArdhaveedu
tp2243
a(V468
VBallikuruva
tp2244
a(V732
VBestavaripeta
tp2245
a(V1100
VChadrasekarapuram
tp2246
a(V1290
VChimakurthi
tp2247
a(V1293
VChinaganjam
tp2248
a(V1318
VChirala
tp2249
a(V1378
VCumbum
tp2250
a(V1452
VDarsi
tp2251
a(V1661
VDonakonda
tp2252
a(V1669
VDornala
tp2253
a(V1952
VGiddaluru
tp2254
a(V2047
VGudluru
tp2255
a(V2132
VHanumanthunipadu
tp2256
a(V2301
VInkollu
tp2257
a(V2435
VJanakavarampanguluru
tp2258
a(V2707
VKandukur
tp2259
a(V2717
VKanigiri
tp2260
a(V2757
VKaramchedu
tp2261
a(V3105
VKomarolu
tp2262
a(V3108
VKonakanamitla
tp2263
a(V3114
VKondapi
tp2264
a(V3140
VKorisapadu
tp2265
a(V3168
VKothapatnam
tp2266
a(V3283
VKurichedu
tp2267
a(V3418
VLingasamudram
tp2268
a(V3473
VMaddipadu
tp2269
a(V3734
VMarkapur
tp2270
a(V3739
VMarripudi
tp2271
a(V3742
VMartur
tp2272
a(V3990
VMundlamuru
tp2273
a(V4084
VNaguluppalapadu
tp2274
a(V4388
VOngole
tp2275
a(V4493
VPamur
tp2276
a(V4561
VParchur
tp2277
a(V4655
VPedaaraveedu
tp2278
a(V4657
VPedacherlopalle
tp2279
a(V4783
VPodili
tp2280
a(V4804
VPonnaluru
tp2281
a(V4849
VPullalacheruvu
tp2282
a(V4905
VRacherla
tp2283
a(V5384
VSanthamaguluru
tp2284
a(V5385
VSanthanuthlapadu
tp2285
a(V5653
VSingarayakonda
tp2286
a(V5903
VTangutur
tp2287
a(V5928
VTarlapadu
tp2288
a(V5982
VThallur
tp2289
a(V6137
VTripuranthakam
tp2290
a(V6194
VUlavapadu
tp2291
a(V6316
VVeligandla
tp2292
a(V6348
VVetapalem
tp2293
a(V6388
VVoletivaripalem
tp2294
a(V6451
VYeddanapudi
tp2295
a(V6469
VYerragondapalem
tp2296
a(V6481
VZarugumilli
tp2297
as(V20
VAnantapur
tp2298
(lp2299
(V27
VAgali
tp2300
a(V104
VAmadagur
tp2301
a(V111
VAmarapuram
tp2302
a(V176
VAnantapur
tp2303
a(V293
VAtmakur
tp2304
a(V662
VBathalapalle
tp2305
a(V714
VBeluguppa
tp2306
a(V1021
VBommanahal
tp2307
a(V1047
VBrahmasamudram
tp2308
a(V1063
VBukkapatnam
tp2309
a(V1064
VBukkarayasamudram
tp2310
a(V1234
VChenne Kothapalle
tp2311
a(V1285
VChilamathur
tp2312
a(V1380
VD Hirehal
tp2313
a(V1594
VDharmavaram
tp2314
a(V1838
VGandlapenta
tp2315
a(V1884
VGarladinne
tp2316
a(V2000
VGooty
tp2317
a(V2013
VGorantla
tp2318
a(V2037
VGudibanda
tp2319
a(V2063
VGummagatta
tp2320
a(V2074
VGuntakal
tp2321
a(V2219
VHindupur
tp2322
a(V2571
VKadiri
tp2323
a(V2662
VKalyandurg
tp2324
a(V2679
VKambadur
tp2325
a(V2689
VKanaganapalle
tp2326
a(V2708
VKanekal
tp2327
a(V3161
VKothacheruvu
tp2328
a(V3220
VKudair
tp2329
a(V3263
VKundurpi
tp2330
a(V3407
VLepakshi
tp2331
a(V3464
VMadakasira
tp2332
a(V3951
VMudigubba
tp2333
a(V4114
VNallacheruvu
tp2334
a(V4116
VNallamada
tp2335
a(V4122
VNambulipulikunta
tp2336
a(V4200
VNarpala
tp2337
a(V4369
VObuladevaracheruvu
tp2338
a(V4487
VPamidi
tp2339
a(V4565
VParigi
tp2340
a(V4675
VPeddapappur
tp2341
a(V4678
VPeddavadugur
tp2342
a(V4697
VPenu Konda
tp2343
a(V4887
VPutlur
tp2344
a(V4888
VPuttaparthi
tp2345
a(V5022
VRamagiri
tp2346
a(V5106
VRaptadu
tp2347
a(V5134
VRayadurg
tp2348
a(V5177
VRoddam
tp2349
a(V5187
VRolla
tp2350
a(V5496
VSettur
tp2351
a(V5652
VSinganamala
tp2352
a(V5717
VSomandepalle
tp2353
a(V5849
VTadimarri
tp2354
a(V5851
VTadpatri
tp2355
a(V5879
VTalupula
tp2356
a(V5892
VTanakal
tp2357
a(V6229
VUravakonda
tp2358
a(V6264
VVajrakarur
tp2359
a(V6350
VVidapanakal
tp2360
a(V6447
VYadiki
tp2361
a(V6461
VYellanur
tp2362
ass(V4
VAssam
tp2363
(dp2364
(V407
VNowgaon
tp2365
(lp2366
(V426
VBajiagaon
tp2367
a(V592
VBarhampur
tp2368
a(V659
VBatadrava
tp2369
a(V959
VBinnakandi
tp2370
a(V1403
VDalanghat
tp2371
a(V1542
VDhalapukhuri
tp2372
a(V2534
VJugijan
tp2373
a(V2547
VJuria
tp2374
a(V2627
VKaliabar
tp2375
a(V2829
VKathiatali
tp2376
a(V2912
VKhagarijan
tp2377
a(V3371
VLamding
tp2378
a(V3379
VLaowkhowa
tp2379
a(V4373
VOdali
tp2380
a(V4434
VPakhimaria
tp2381
a(V4585
VPaschim Kaliabar
tp2382
a(V4923
VRaha
tp2383
a(V5210
VRupahihat
tp2384
as(V151
VDhemaji
tp2385
(lp2386
(V1032
VBordoloni
tp2387
a(V1607
VDhemaji
tp2388
a(V3462
VMachkhowa
tp2389
a(V4010
VMurkongsellek
tp2390
a(V5687
VSissiborgaon
tp2391
as(V636
VUdalguri
tp2392
(lp2393
(V7078
VBhergaon
tp2394
a(V7079
VKhoirabari
tp2395
a(V7080
VMazbat
tp2396
a(V7081
VRowta Charali
tp2397
a(V7082
VUdalguri
tp2398
as(V385
VNalbari
tp2399
(lp2400
(V577
VBarbhag
tp2401
a(V1034
VBorigog Bonbhag
tp2402
a(V1038
VBorkhetri
tp2403
a(V3488
VMadhupur
tp2404
a(V4586
VPaschim Nalbari
tp2405
a(V4838
VPub Nalbari
tp2406
a(V6077
VTihu
tp2407
as(V261
VJorhat
tp2408
(lp2409
(V2525
VJorhat
tp2410
a(V2526
VJorhat Central
tp2411
a(V2527
VJorhat East
tp2412
a(V2528
VJorhat North West
tp2413
a(V2632
VKaliapani
tp2414
a(V3569
VMajuli
tp2415
a(V6116
VTitabar
tp2416
a(V6187
VUjani Majuli
tp2417
as(V303
VKokrajhar
tp2418
(lp2419
(V1672
VDotoma
tp2420
a(V2021
VGossaigaon
tp2421
a(V2557
VKachugaon
tp2422
a(V3085
VKokrajhar
tp2423
as(V88
VBongaigaon
tp2424
(lp2425
(V1011
VBoitamari
tp2426
a(V1427
VDangtol
tp2427
a(V3682
VManikpur
tp2428
a(V5760
VSrijangram
tp2429
a(V5913
VTapattari
tp2430
as(V548
VTinsukia
tp2431
(lp2432
(V2058
VGuijan
tp2433
a(V2134
VHapjan
tp2434
a(V2319
VItakhuli
tp2435
a(V2597
VKakopathar
tp2436
a(V3726
VMargherita
tp2437
a(V5237
VSadiya
tp2438
a(V5272
VSaikhowa
tp2439
as(V153
VDhubri
tp2440
(lp2441
(V34
VAgomoni
tp2442
a(V942
VBilasipara
tp2443
a(V974
VBirshing Jarua
tp2444
a(V1183
VChapar Salkocha
tp2445
a(V1475
VDebitola
tp2446
a(V1782
VFekamari
tp2447
a(V1899
VGauripur
tp2448
a(V1985
VGolakganj
tp2449
a(V2407
VJamadarhat
tp2450
a(V3517
VMahamaya
tp2451
a(V3691
VMankachar
tp2452
a(V4260
VNayeralga
tp2453
a(V5215
VRupsi
tp2454
a(V5753
VSouth Salmara
tp2455
a(V7077
VHatidhura
tp2456
as(V156
VDibrugarh
tp2457
(lp2458
(V1031
VBorbarua
tp2459
a(V2359
VJaipur
tp2460
a(V3018
VKhowang
tp2461
a(V3330
VLahowal
tp2462
a(V4521
VPanitola
tp2463
a(V5955
VTengakhat
tp2464
a(V6091
VTingkhong
tp2465
as(V521
VSonitpur
tp2466
(lp2467
(V383
VBaghmora
tp2468
a(V461
VBalipara
tp2469
a(V579
VBarchola
tp2470
a(V688
VBehali
tp2471
a(V914
VBihaguri
tp2472
a(V992
VBiswanath
tp2473
a(V1105
VChaiduar
tp2474
a(V1606
VDhekiajuli
tp2475
a(V1792
VGabharu
tp2476
a(V4053
VNaduar
tp2477
a(V4836
VPub Chaiduar
tp2478
a(V5082
VRangapara
tp2479
a(V5289
VSakomatha
tp2480
a(V5741
VSootia
tp2481
as(V56
VBarpeta
tp2482
(lp2483
(V425
VBajali
tp2484
a(V617
VBarpeta
tp2485
a(V742
VBhabanipur
tp2486
a(V1115
VChakchaka
tp2487
a(V1229
VChenga
tp2488
a(V1818
VGama-Fulbari
tp2489
a(V3648
VMandia
tp2490
a(V4432
VPaka-Betbari
tp2491
a(V5216
VRupsi
tp2492
a(V5425
VSarukhetri
tp2493
as(V635
VChirang
tp2494
(lp2495
(V7073
VBorobajar
tp2496
a(V7074
VSidli Chirang
tp2497
a(V7076
VSidli Chirang
tp2498
as(V196
VGoalpara
tp2499
(lp2500
(V458
VBalijana
tp2501
a(V2523
VJoleshwar
tp2502
a(V2978
VKharmoja
tp2503
a(V3204
VKrishnai
tp2504
a(V3301
VKushdhuwa
tp2505
a(V3343
VLakhipur
tp2506
a(V3768
VMatia
tp2507
a(V5084
VRangjuli
tp2508
as(V501
VSibsagar
tp2509
(lp2510
(V148
VAmguri
tp2511
a(V1490
VDemow
tp2512
a(V1896
VGauri Sagar
tp2513
a(V3354
VLakwa
tp2514
a(V4261
VNazira
tp2515
a(V4584
VPaschim Abhayapur
tp2516
a(V5392
VSapekhati
tp2517
a(V5698
VSivasagar
tp2518
a(V5723
VSonari
tp2519
as(V198
VGolaghat
tp2520
(lp2521
(V1819
VGamariguri
tp2522
a(V1980
VGolaghat East
tp2523
a(V1981
VGolaghat West
tp2524
a(V1982
VGolaghat Central
tp2525
a(V1983
VGolaghat North
tp2526
a(V1984
VGolaghat South
tp2527
a(V2596
VKakodonga
tp2528
a(V3928
VMorongi
tp2529
as(V378
VN.C.Hills
tp2530
(lp2531
(V1647
VDiyung Valley
tp2532
a(V1648
VDiyungbra
tp2533
a(V2138
VHarangajao
tp2534
a(V2460
VJatinga Valley
tp2535
a(V4283
VNew Sangbar
tp2536
as(V277
VKarbi Anglong
tp2537
(lp2538
(V162
VAmri
tp2539
a(V1012
VBokajan
tp2540
a(V1311
VChinthong
tp2541
a(V2250
VHowraghat
tp2542
a(V3375
VLangsomepi
tp2543
a(V3443
VLumbajong
tp2544
a(V4305
VNilip
tp2545
a(V5193
VRongkhang
tp2546
a(V5195
VRongmongwe
tp2547
a(V5323
VSamelangso
tp2548
a(V5704
VSocheng
tp2549
as(V266
VKamrup Rural
tp2550
(lp2551
(V740
VBezera
tp2552
a(V918
VBihdia Jajikona
tp2553
a(V1014
VBoko
tp2554
a(V1027
VBongaon
tp2555
a(V1130
VChamaria
tp2556
a(V1166
VChandrapur
tp2557
a(V1215
VChayani Borduar
tp2558
a(V1216
VChaygaon
tp2559
a(V1636
VDimoria
tp2560
a(V2016
VGoroimari
tp2561
a(V2108
VHajo
tp2562
a(V2673
VKamalpur
tp2563
a(V5058
VRampur
tp2564
a(V5083
VRangia
tp2565
a(V5087
VRani
tp2566
a(V5776
VSualkuchi
tp2567
as(V634
VBaksa
tp2568
(lp2569
(V7071
VGobardhana
tp2570
a(V7072
VJalah
tp2571
a(V7075
VGoreswar
tp2572
a(V7083
VBaksa
tp2573
a(V7084
VDhamdhama
tp2574
a(V7085
VNagrijuli
tp2575
a(V7086
VTamulpur
tp2576
a(V7087
VTihu Barama
tp2577
as(V325
VLakhimpur
tp2578
(lp2579
(V921
VBihpuria
tp2580
a(V1006
VBoginodi
tp2581
a(V1541
VDhakuakhana
tp2582
a(V1938
VGhilamara
tp2583
a(V2797
VKarunabari
tp2584
a(V3342
VLakhimpur
tp2585
a(V4177
VNarayanpur
tp2586
a(V4344
VNowboicha
tp2587
a(V5946
VTelahi
tp2588
as(V371
VMorigaon
tp2589
(lp2590
(V894
VBhurbandha
tp2591
a(V3127
VKopili
tp2592
a(V3329
VLahorighat
tp2593
a(V3796
VMayong
tp2594
a(V3903
VMoirabari
tp2595
as(V97
VCachar
tp2596
(lp2597
(V540
VBanskandi
tp2598
a(V960
VBinnakandi
tp2599
a(V1037
VBorjalenga
tp2600
a(V1039
VBorkhola
tp2601
a(V2603
VKalain
tp2602
a(V2836
VKatigorah
tp2603
a(V3344
VLakhipur
tp2604
a(V4209
VNarsingpur
tp2605
a(V4480
VPalonghat
tp2606
a(V4958
VRajabazar
tp2607
a(V5298
VSalchapra
tp2608
a(V5630
VSilchar
tp2609
a(V5721
VSonai
tp2610
a(V5912
VTapang
tp2611
a(V6181
VUdharbond
tp2612
as(V279
VKarimganj
tp2613
(lp2614
(V355
VBadarpur
tp2615
a(V1693
VDullav Cherra
tp2616
a(V3440
VLowairpoa
tp2617
a(V4342
VNorth Karimganj
tp2618
a(V4614
VPatharkandi
tp2619
a(V5175
VRknagar
tp2620
a(V5752
VSouth Karimganj
tp2621
as(V134
VDarrang
tp2622
(lp2623
(V680
VBechimari
tp2624
a(V1404
VDalgaon Sialmari
tp2625
a(V2602
VKalaigaon
tp2626
a(V4407
VPachim Mangaldoi
tp2627
a(V4837
VPub Mangaldoi
tp2628
a(V5665
VSipajhar
tp2629
as(V210
VHailakandi
tp2630
(lp2631
(V83
VAlgapur
tp2632
a(V2103
VHailakandi
tp2633
a(V2839
VKatlicherra
tp2634
a(V3355
VLala
tp2635
a(V5751
VSouth Hailakandi
tp2636
ass(V15
VJammu And Kashmir
tp2637
(dp2638
(V318
VKupwara
tp2639
(lp2640
(V2617
VKalaroos
tp2641
a(V2789
VKarnah
tp2642
a(V3197
VKralpora
tp2643
a(V3274
VKupwara
tp2644
a(V3374
VLangate
tp2645
a(V5009
VRajwar
tp2646
a(V5043
VRamhal
tp2647
a(V5706
VSogam
tp2648
a(V5937
VTeetwal
tp2649
a(V6135
VTrehgam
tp2650
a(V6296
VVawoora
tp2651
as(V284
VKathua
tp2652
(lp2653
(V512
VBani
tp2654
a(V614
VBarnoti
tp2655
a(V649
VBasohli
tp2656
a(V950
VBillawar
tp2657
a(V1804
VGagwal
tp2658
a(V2226
VHiranagar
tp2659
a(V2833
VKathua
tp2660
a(V3431
VLohi Malhar
tp2661
as(V246
VJammu
tp2662
(lp2663
(V57
VAkhnoor
tp2664
a(V787
VBhalwal
tp2665
a(V980
VBishnah
tp2666
a(V1432
VDansal
tp2667
a(V3015
VKhour
tp2668
a(V3727
VMarh
tp2669
a(V4870
VPurmandal
tp2670
a(V4901
VR S Pura
tp2671
a(V5319
VSamba
tp2672
a(V5446
VSatwari
tp2673
a(V6360
VVijaypur
tp2674
as(V90
VBudgam
tp2675
(lp2676
(V329
VB K Pora
tp2677
a(V682
VBeerwa
tp2678
a(V1054
VBudgam
tp2679
a(V1099
VChadoora
tp2680
a(V2909
VKhag
tp2681
a(V2943
VKhan Sahib
tp2682
a(V4057
VNagam
tp2683
a(V4180
VNarbal
tp2684
as(V278
VKargil
tp2685
(lp2686
(V1677
VDrass
tp2687
a(V2775
VKargil
tp2688
a(V5375
VSankoo
tp2689
a(V5527
VShakar Chiktan
tp2690
a(V5545
VShargole
tp2691
a(V5855
VTai Suru
tp2692
a(V6479
VZanaskar
tp2693
as(V21
VAnantnag
tp2694
(lp2695
(V7
VAchabal
tp2696
a(V1050
VBreng
tp2697
a(V1388
VDachnipora
tp2698
a(V1415
VDamhal Hanji Pora
tp2699
a(V3016
VKhovripora
tp2700
a(V3235
VKulgam
tp2701
a(V4429
VPahloo
tp2702
a(V4896
VQaimoh
tp2703
a(V4897
VQazigund
tp2704
a(V5500
VShahabad
tp2705
a(V5537
VShangus
tp2706
as(V160
VDoda
tp2707
(lp2708
(V274
VAssar
tp2709
a(V514
VBanihal
tp2710
a(V751
VBhaderwah
tp2711
a(V767
VBhagwa
tp2712
a(V784
VBhalessa
tp2713
a(V1651
VDoda
tp2714
a(V2293
VInderwal
tp2715
a(V3054
VKishtwar
tp2716
a(V3745
VMarwah
tp2717
a(V4413
VPaddar
tp2718
a(V5033
VRamban
tp2719
a(V5072
VRamsu
tp2720
a(V6000
VThathri
tp2721
a(V6426
VWarwan
tp2722
as(V432
VPoonch
tp2723
(lp2724
(V437
VBalakote
tp2725
a(V3646
VMandi
tp2726
a(V3839
VMendhar
tp2727
a(V4809
VPoonch
tp2728
a(V5815
VSurankote
tp2729
as(V438
VPulwama
tp2730
(lp2731
(V2590
VKakapora
tp2732
a(V2882
VKellar
tp2733
a(V4491
VPampore
tp2734
a(V4852
VPulwama
tp2735
a(V5598
VShupiyan
tp2736
a(V6134
VTral
tp2737
as(V332
VLeh
tp2738
(lp2739
(V1712
VDurbugh
tp2740
a(V2933
VKhalsti
tp2741
a(V2981
VKharu
tp2742
a(V3404
VLeh
tp2743
a(V4333
VNobra
tp2744
a(V4365
VNyoma
tp2745
as(V453
VRajouri
tp2746
(lp2747
(V1057
VBudhal
tp2748
a(V1447
VDarhal
tp2749
a(V2608
VKalakote
tp2750
a(V3683
VManjakote
tp2751
a(V4348
VNowshera
tp2752
a(V4995
VRajouri
tp2753
a(V5809
VSunderbani
tp2754
as(V51
VBaramulla
tp2755
(lp2756
(V498
VBandipora
tp2757
a(V566
VBaramulla
tp2758
a(V1028
VBoniyar
tp2759
a(V2080
VGurez
tp2760
a(V2105
VHajin
tp2761
a(V3272
VKunzer
tp2762
a(V4634
VPattan
tp2763
a(V4910
VRafiabad
tp2764
a(V5180
VRohama
tp2765
a(V5658
VSinghpora
tp2766
a(V5742
VSopore
tp2767
a(V5802
VSumbal
tp2768
a(V5902
VTangmarg
tp2769
a(V6230
VUri
tp2770
a(V6405
VWagoora
tp2771
a(V6478
VZainageer
tp2772
as(V562
VUdhampur
tp2773
(lp2774
(V243
VArnas
tp2775
a(V1226
VChenani
tp2776
a(V1685
VDudu
tp2777
a(V1946
VGhordi
tp2778
a(V1999
VGool
tp2779
a(V3538
VMahore
tp2780
a(V3560
VMajalta
tp2781
a(V4497
VPanchari
tp2782
a(V4818
VPouni
tp2783
a(V5051
VRamnagar
tp2784
a(V5141
VReasi
tp2785
a(V6180
VUdhampur
tp2786
as(V529
VSrinagar
tp2787
(lp2788
(V1830
VGanderbal
tp2789
a(V2710
VKangan
tp2790
a(V3381
VLar
tp2791
a(V5764
VSrinagar
tp2792
ass(V17
VKarnataka
tp2793
(dp2794
(V558
VTumkur
tp2795
(lp2796
(V1091
VC.N.Halli
tp2797
a(V2033
VGubbi
tp2798
a(V3133
VKoratagere
tp2799
a(V3264
VKunigal
tp2800
a(V3487
VMadhugiri
tp2801
a(V4644
VPavagada
tp2802
a(V5666
VSira
tp2803
a(V6092
VTiptur
tp2804
a(V6149
VTumkur
tp2805
a(V6159
VTuruvekere
tp2806
as(V217
VHassan
tp2807
(lp2808
(V101
VAlur
tp2809
a(V217
VArakalgud
tp2810
a(V226
VArasikere
tp2811
a(V715
VBelur
tp2812
a(V1180
VChannarayapatna
tp2813
a(V2181
VHassan
tp2814
a(V2238
VHolenarasipur
tp2815
a(V5284
VSakaleshpur
tp2816
as(V137
VDavanagere
tp2817
(lp2818
(V1232
VChennagiri
tp2819
a(V1471
VDavanagere
tp2820
a(V2139
VHarapanahalli
tp2821
a(V2146
VHarihara
tp2822
a(V2239
VHonnali
tp2823
a(V2331
VJagalur
tp2824
as(V111
VChickballapur
tp2825
(lp2826
(V376
VBagepalli
tp2827
a(V1274
VChickballapur
tp2828
a(V1309
VChinthamani
tp2829
a(V2031
VGowribidanur
tp2830
a(V2038
VGudibanda
tp2831
a(V5613
VSidlaghatta
tp2832
as(V300
VKodagu
tp2833
(lp2834
(V3492
VMadikeri
tp2835
a(V5718
VSomavarpet
tp2836
a(V6373
VVirajpet
tp2837
as(V377
VMysore
tp2838
(lp2839
(V2205
VHeggadadevanakote
tp2840
a(V2259
VHunsur
tp2841
a(V3205
VKrishnarajanagar
tp2842
a(V4039
VMysore
tp2843
a(V4156
VNanjangud
tp2844
a(V4712
VPeriyapatna
tp2845
a(V5844
VT.Narasipur
tp2846
as(V46
VBangalore U
tp2847
(lp2848
(V191
VAnekal
tp2849
a(V503
VBangalore(E)
tp2850
a(V504
VBangalore(N)
tp2851
a(V505
VBangalore(S)
tp2852
as(V78
VBijapur
tp2853
(lp2854
(V637
VBasavanabagevadi
tp2855
a(V924
VBijapur
tp2856
a(V2294
VIndi
tp2857
a(V3946
VMuddebihal
tp2858
a(V5646
VSindagi
tp2859
as(V127
VDakshina Kannada
tp2860
(lp2861
(V546
VBantwal
tp2862
a(V713
VBelthangadi
tp2863
a(V3664
VMangalore
tp2864
a(V4890
VPuttur
tp2865
a(V5801
VSulya
tp2866
as(V149
VDharwad
tp2867
(lp2868
(V1600
VDharwad
tp2869
a(V2252
VHubli
tp2870
a(V2625
VKalghatgi
tp2871
a(V3259
VKundgol
tp2872
a(V4237
VNavalgund
tp2873
as(V77
VBidar
tp2874
(lp2875
(V311
VAurad
tp2876
a(V638
VBasavanakalyan
tp2877
a(V785
VBhalki
tp2878
a(V909
VBidar
tp2879
a(V2256
VHumnabad
tp2880
as(V308
VKoppal
tp2881
(lp2882
(V1851
VGangavathi
tp2883
a(V3129
VKoppal
tp2884
a(V3306
VKustagi
tp2885
a(V6456
VYelburga
tp2886
as(V356
VMandya
tp2887
(lp2888
(V3206
VKrishnarajapet
tp2889
a(V3476
VMaddur
tp2890
a(V3584
VMalavalli
tp2891
a(V3658
VMandya
tp2892
a(V4058
VNagamangala
tp2893
a(V4509
VPandavapura
tp2894
a(V5769
VSrirangapatna
tp2895
as(V63
VBelgaum
tp2896
(lp2897
(V284
VAthani
tp2898
a(V417
VBailahongala
tp2899
a(V701
VBelgaum
tp2900
a(V1283
VChikkodi
tp2901
a(V1976
VGokak
tp2902
a(V2253
VHukkeri
tp2903
a(V2947
VKhanapur
tp2904
a(V4932
VRaibag
tp2905
a(V5021
VRamadurga
tp2906
a(V5749
VSoundatti
tp2907
as(V112
VChickmagalur
tp2908
(lp2909
(V1276
VChickmagalur
tp2910
a(V2572
VKadur
tp2911
a(V3128
VKoppa
tp2912
a(V3949
VMudigere
tp2913
a(V4166
VNarasimharajapura
tp2914
a(V5765
VSringeri
tp2915
a(V5924
VTarikere
tp2916
as(V445
VRaichur
tp2917
(lp2918
(V1497
VDeodurga
tp2919
a(V3419
VLingasugur
tp2920
a(V3717
VManvi
tp2921
a(V4933
VRaichur
tp2922
a(V5647
VSindhanur
tp2923
as(V35
VBagalkot
tp2924
(lp2925
(V353
VBadami
tp2926
a(V371
VBagalkot
tp2927
a(V946
VBilgi
tp2928
a(V2257
VHungund
tp2929
a(V2408
VJamakhandi
tp2930
a(V3947
VMudhol
tp2931
as(V203
VGulbarga
tp2932
(lp2933
(V26
VAfzalpur
tp2934
a(V74
VAland
tp2935
a(V1294
VChincholi
tp2936
a(V1330
VChittapur
tp2937
a(V2060
VGulbarga
tp2938
a(V2482
VJewargi
tp2939
a(V5462
VSedam
tp2940
as(V98
VChamarajanagar
tp2941
(lp2942
(V1374
VCR Nagar
tp2943
a(V2071
VGundlupet
tp2944
a(V3096
VKollegala
tp2945
a(V6455
VYelandur
tp2946
as(V186
VGadag
tp2947
(lp2948
(V1793
VGadag
tp2949
a(V3988
VMundargi
tp2950
a(V4183
VNargund
tp2951
a(V5191
VRon
tp2952
a(V5573
VShirhatti
tp2953
as(V598
VYadgiri
tp2954
(lp2955
(V5517
VShahpur
tp2956
a(V5592
VShorapur
tp2957
a(V6446
VYadgiri
tp2958
as(V219
VHaveri
tp2959
(lp2960
(V1088
VByadgi
tp2961
a(V2123
VHangal
tp2962
a(V2196
VHaveri
tp2963
a(V2228
VHirekerur
tp2964
a(V5092
VRanibennur
tp2965
a(V5453
VSavanur
tp2966
a(V5563
VShiggoan
tp2967
as(V571
VUttara Kannada
tp2968
(lp2969
(V201
VAnkola
tp2970
a(V818
VBhatkal
tp2971
a(V2115
VHaliyal
tp2972
a(V2240
VHonnavara
tp2973
a(V2521
VJoida/ Supa)
tp2974
a(V2803
VKarwar
tp2975
a(V3251
VKumta
tp2976
a(V3986
VMundagod
tp2977
a(V5601
VSiddapura
tp2978
a(V5681
VSirsi
tp2979
a(V6462
VYellapura
tp2980
as(V113
VChitradurga
tp2981
(lp2982
(V1128
VChallakere
tp2983
a(V1324
VChitradurga
tp2984
a(V2229
VHiriyur
tp2985
a(V2237
VHolalkere
tp2986
a(V2241
VHosadurga
tp2987
a(V3907
VMolakalmur
tp2988
as(V498
VShimoga
tp2989
(lp2990
(V759
VBhadravathi
tp2991
a(V2243
VHosanagar
tp2992
a(V5242
VSagar
tp2993
a(V5565
VShikaripur
tp2994
a(V5569
VShimoga
tp2995
a(V5743
VSoraba
tp2996
a(V6017
VThirthahalli
tp2997
as(V304
VKolar
tp2998
(lp2999
(V507
VBangarpet
tp3000
a(V3088
VKolar
tp3001
a(V3611
VMalur
tp3002
a(V3972
VMulbagal
tp3003
a(V5766
VSrinivasapura
tp3004
as(V64
VBellary
tp3005
(lp3006
(V709
VBellary
tp3007
a(V2099
VHadagali
tp3008
a(V2101
VHagaribommanahalli
tp3009
a(V2247
VHospet
tp3010
a(V3222
VKudligi
tp3011
a(V5343
VSandoor
tp3012
a(V5684
VSiruguppa
tp3013
as(V456
VRamnagar
tp3014
(lp3015
(V1179
VChannapatna
tp3016
a(V2692
VKanakpur
tp3017
a(V3502
VMagadi
tp3018
a(V5024
VRamanagar
tp3019
as(V563
VUdupi
tp3020
(lp3021
(V2785
VKarkala
tp3022
a(V3258
VKundapura
tp3023
a(V6185
VUdupi
tp3024
as(V45
VBangalore R
tp3025
(lp3026
(V1523
VDevanahalli
tp3027
a(V1653
VDoddaballapur
tp3028
a(V2242
VHosakote
tp3029
a(V4271
VNelamangala
tp3030
ass(V6
VChandigarh (UT)
tp3031
(dp3032
(V617
VChandigarh
tp3033
(lp3034
ss(V20
VMadhya Pradesh
tp3035
(dp3036
(V135
VDatia
tp3037
(lp3038
(V794
VBhander
tp3039
a(V1466
VDatia
tp3040
a(V5484
VSeondha
tp3041
as(V392
VNarsighpur
tp3042
(lp3043
(V337
VBabai Chichli
tp3044
a(V1211
VChawarpata
tp3045
a(V2022
VGotegaon
tp3046
a(V2771
VKareli
tp3047
a(V4206
VNarsighpur
tp3048
a(V5271
VSaikhda Gadarwada
tp3049
as(V355
VMandsour
tp3050
(lp3051
(V799
VBhanpura
tp3052
a(V1885
VGaroth
tp3053
a(V3590
VMalhargarh
tp3054
a(V3654
VMandsour
tp3055
a(V5692
VSitamau
tp3056
as(V492
VShahdol
tp3057
(lp3058
(V722
VBeohari
tp3059
a(V1077
VBurhar
tp3060
a(V2364
VJaisingh Nagar
tp3061
a(V4466
VGohparu
tp3062
a(V5708
VSohagpur
tp3063
as(V490
VSeopur
tp3064
(lp3065
(V2752
VKarahal
tp3066
a(V5487
VSeopurkalan
tp3067
a(V6362
VVijaypur
tp3068
as(V253
VJhabua
tp3069
(lp3070
(V2484
VJhabua
tp3071
a(V3811
VMeghnagar
tp3072
a(V4721
VPetlawad
tp3073
a(V5014
VRama
tp3074
a(V5076
VRanapur
tp3075
a(V5988
VThandla
tp3076
as(V485
VSatna
tp3077
(lp3078
(V115
VAmarpatan
tp3079
a(V1326
VChitrakut (Majhgawan)
tp3080
a(V3550
VMaihar
tp3081
a(V4075
VNagod
tp3082
a(V5010
VRam Nagar
tp3083
a(V5062
VRampur Baghelan
tp3084
a(V5710
VSohawal (Satna)
tp3085
a(V6165
VUchehra
tp3086
as(V29
VAshok Nagar
tp3087
(lp3088
(V258
VAshok Nagar
tp3089
a(V1153
VChanderi
tp3090
a(V2311
VIshagarh
tp3091
a(V3994
VMungawali
tp3092
as(V579
VVidisha
tp3093
(lp3094
(V648
VBasoda
tp3095
a(V2095
VGyaraspur
tp3096
a(V3298
VKurvai
tp3097
a(V3386
VLateri
tp3098
a(V4218
VNateran
tp3099
a(V5677
VSironj
tp3100
a(V6352
VVidisha
tp3101
as(V460
VRatlam
tp3102
(lp3103
(V99
VAlot
tp3104
a(V427
VBajna
tp3105
a(V2445
VJaora
tp3106
a(V4764
VPiploda
tp3107
a(V5119
VRatlam
tp3108
a(V5274
VSailana
tp3109
as(V159
VDindori
tp3110
(lp3111
(V116
VAmarpur
tp3112
a(V424
VBajag
tp3113
a(V1641
VDindori
tp3114
a(V2763
VKaranjia
tp3115
a(V3815
VMehandwani
tp3116
a(V5521
VShahpura
tp3117
a(V5703
VSmanapur
tp3118
as(V547
VTikamgarh
tp3119
(lp3120
(V445
VBaldeogarh
tp3121
a(V2458
VJatara
tp3122
a(V4324
VNiwari
tp3123
a(V4458
VPalera
tp3124
a(V4834
VPrithivipur
tp3125
a(V6081
VTikamgarh
tp3126
as(V499
VShivpuri
tp3127
(lp3128
(V356
VBadarwas
tp3129
a(V2773
VKarera
tp3130
a(V2956
VKhaniya Dhana
tp3131
a(V3089
VKolaras
tp3132
a(V4213
VNarwar
tp3133
a(V4747
VPichhore
tp3134
a(V4787
VPohri
tp3135
a(V5583
VShivpuri
tp3136
as(V209
VGwalior
tp3137
(lp3138
(V863
VBhitarwar
tp3139
a(V1384
VDabra
tp3140
a(V1931
VGhatigaon (Barai)
tp3141
a(V3920
VMorar
tp3142
as(V417
VPanna
tp3143
(lp3144
(V49
VAjaygarh
tp3145
a(V2073
VGunnor
tp3146
a(V4524
VPanna
tp3147
a(V4645
VPawai
tp3148
a(V5514
VShahnagar
tp3149
as(V205
VGuna
tp3150
(lp3151
(V248
VAron
tp3152
a(V487
VBamori
tp3153
a(V1097
VChachoda
tp3154
a(V2066
VGuna
tp3155
a(V4913
VRaghogarh
tp3156
as(V76
VBhopal
tp3157
(lp3158
(V730
VBersiya
tp3159
a(V4727
VPhanda
tp3160
as(V294
VKhargone
tp3161
(lp3162
(V626
VBarwaha
tp3163
a(V775
VBhagwanpura
tp3164
a(V846
VBhikangaon
tp3165
a(V1968
VGogawa
tp3166
a(V2821
VKasrawad
tp3167
a(V2970
VKhargone
tp3168
a(V3527
VMaheshwar
tp3169
a(V5468
VSegaon
tp3170
a(V6486
VZirniya
tp3171
as(V224
VHoshangabad
tp3172
(lp3173
(V336
VBabai
tp3174
a(V526
VBankhedi
tp3175
a(V2244
VHoshangabad
tp3176
a(V2899
VKesla
tp3177
a(V4762
VPipariya
tp3178
a(V5486
VSeoni Malwa
tp3179
a(V5707
VSohagpur
tp3180
as(V233
VJabalpur
tp3181
(lp3182
(V587
VBargi Jabalpur
tp3183
a(V3257
VKundam
tp3184
a(V3565
VMajholi
tp3185
a(V4494
VPanagar
tp3186
a(V4592
VPatan
tp3187
a(V5522
VShahpura Bhitoni
tp3188
a(V5618
VSihora
tp3189
as(V109
VChhatarpur
tp3190
(lp3191
(V352
VBadamalhara
tp3192
a(V929
VBijawar
tp3193
a(V1087
VBuxwaha
tp3194
a(V1257
VChhatarpur
tp3195
a(V1898
VGaurihar
tp3196
a(V3392
VLaundi
tp3197
a(V4346
VNowgong
tp3198
a(V4987
VRajnagar
tp3199
as(V450
VRajgarh
tp3200
(lp3201
(V898
VBiaora
tp3202
a(V2513
VJirapur
tp3203
a(V3005
VKhilchipur
tp3204
a(V4205
VNarsighgarh
tp3205
a(V4978
VRajgarh
tp3206
a(V5405
VSarangpur (Pachor)
tp3207
as(V39
VBalaghat
tp3208
(lp3209
(V413
VBaihar
tp3210
a(V436
VBalaghat
tp3211
a(V973
VBirsa
tp3212
a(V2823
VKatangi
tp3213
a(V2919
VKhairlanji
tp3214
a(V3046
VKirnapur
tp3215
a(V3358
VLalbarra
tp3216
a(V3377
VLanji
tp3217
a(V4554
VParaswara
tp3218
a(V6418
VWaraseoni
tp3219
as(V566
VUmria
tp3220
(lp3221
(V3702
VManpur
tp3222
a(V4463
VPali Gohparu
tp3223
a(V6201
VUmaria Karkeli
tp3224
as(V473
VSagar
tp3225
(lp3226
(V494
VBanda
tp3227
a(V954
VBina
tp3228
a(V1506
VDeori
tp3229
a(V2363
VJaisinagar
tp3230
a(V2900
VKesli
tp3231
a(V3025
VKhurai
tp3232
a(V3610
VMalthon
tp3233
a(V4925
VRahatgarh
tp3234
a(V4928
VRahli
tp3235
a(V5243
VSagar
tp3236
a(V5510
VShahgarh
tp3237
as(V354
VMandla
tp3238
(lp3239
(V904
VBichhiya
tp3240
a(V923
VBijadandi
tp3241
a(V2055
VGughari
tp3242
a(V3650
VMandla
tp3243
a(V3782
VMawai
tp3244
a(V3895
VMohgaon
tp3245
a(V4094
VNainpur
tp3246
a(V4170
VNarayanganj
tp3247
a(V4325
VNiwas
tp3248
as(V214
VHarda
tp3249
(lp3250
(V2143
VHarda
tp3251
a(V3007
VKhirkiya
tp3252
a(V6089
VTimarni
tp3253
as(V147
VDhar
tp3254
(lp3255
(V364
VBadnawar
tp3256
a(V378
VBagh
tp3257
a(V520
VBankaner
tp3258
a(V1399
VDahi
tp3259
a(V1568
VDhar
tp3260
a(V1576
VDharampuri
tp3261
a(V1836
VGandhwani
tp3262
a(V3230
VKukshi
tp3263
a(V3627
VManawar
tp3264
a(V4108
VNalchha
tp3265
a(V4318
VNisarpur
tp3266
a(V5410
VSardarpur
tp3267
a(V6094
VTirla
tp3268
as(V286
VKatni
tp3269
(lp3270
(V369
VBadwara
tp3271
a(V1008
VBohriband
tp3272
a(V1610
VDhimarkhera
tp3273
a(V2840
VKatni
tp3274
a(V5172
VRithi
tp3275
a(V6363
VVijayraghogarh
tp3276
as(V110
VChhindwara
tp3277
(lp3278
(V119
VAmarwara
tp3279
a(V905
VBichhua
tp3280
a(V1263
VChhindwara
tp3281
a(V1355
VChourai
tp3282
a(V2162
VHarrai
tp3283
a(V2545
VJunnardeo
tp3284
a(V3898
VMohkhed
tp3285
a(V4512
VPandhurna
tp3286
a(V4550
VParasia
tp3287
a(V5750
VSousar
tp3288
a(V5885
VTamiya
tp3289
as(V370
VMorena
tp3290
(lp3291
(V127
VAmbah
tp3292
a(V2531
VJoura
tp3293
a(V2583
VKailaras
tp3294
a(V3922
VMorena
tp3295
a(V4423
VPahadgarh
tp3296
a(V4813
VPorsa
tp3297
a(V5224
VSabalgarh
tp3298
as(V143
VDewas
tp3299
(lp3300
(V389
VBagli
tp3301
a(V1539
VDewas
tp3302
a(V2733
VKannod
tp3303
a(V2984
VKhategaon
tp3304
a(V5736
VSonkachh
tp3305
a(V6128
VTonk Khurd
tp3306
as(V463
VRewa
tp3307
(lp3308
(V1853
VGangeva
tp3309
a(V2129
VHanumana
tp3310
a(V2465
VJava
tp3311
a(V3776
VMauganj
tp3312
a(V4091
VNaigarhi
tp3313
a(V4948
VRaipur Karchulian
tp3314
a(V5165
VRewa
tp3315
a(V5674
VSirmour
tp3316
a(V5960
VTeonthar
tp3317
as(V489
VSeoni
tp3318
(lp3319
(V586
VBarghat
tp3320
a(V1253
VChhapara
tp3321
a(V1562
VDhanora
tp3322
a(V1917
VGhansor
tp3323
a(V2904
VKevlari
tp3324
a(V3276
VKurai
tp3325
a(V3346
VLakhnadon
tp3326
a(V5485
VSeoni
tp3327
as(V494
VShajapur
tp3328
(lp3329
(V29
VAgar
tp3330
a(V615
VBarod
tp3331
a(V2616
VKalapipal
tp3332
a(V3908
VMoman Barodiya
tp3333
a(V4112
VNalkheda
tp3334
a(V5526
VShajapur
tp3335
a(V5597
VShujalpur
tp3336
a(V5828
VSusner
tp3337
as(V231
VIndore
tp3338
(lp3339
(V1512
VDepalpur
tp3340
a(V2296
VIndore
tp3341
a(V3850
VMhow
tp3342
a(V5390
VSanwer
tp3343
as(V57
VBarwani
tp3344
(lp3345
(V631
VBarwani
tp3346
a(V4323
VNiwali
tp3347
a(V4526
VPansemal
tp3348
a(V4619
VPati
tp3349
a(V4996
VRajpur
tp3350
a(V5478
VSendhwa
tp3351
a(V6010
VThikri
tp3352
as(V399
VNeemuch
tp3353
(lp3354
(V2466
VJawad
tp3355
a(V3624
VManasa
tp3356
a(V4267
VNeemuch
tp3357
as(V65
VBetul
tp3358
(lp3359
(V150
VAmla
tp3360
a(V287
VAthner
tp3361
a(V738
VBetul
tp3362
a(V778
VBhainsdehi
tp3363
a(V855
VBhimpur
tp3364
a(V1273
VChicholi
tp3365
a(V1940
VGhoda Dongri
tp3366
a(V3977
VMultai
tp3367
a(V4820
VPrabhat Pattan
tp3368
a(V5516
VShahpur
tp3369
as(V129
VDamoh
tp3370
(lp3371
(V666
VBatiyagarh
tp3372
a(V1419
VDamoh
tp3373
a(V2194
VHatta
tp3374
a(V2326
VJabera
tp3375
a(V4603
VPatera
tp3376
a(V4612
VPatharia
tp3377
a(V5954
VTendukheda
tp3378
as(V10
VAlirajpur
tp3379
(lp3380
(V90
VAlirajpur
tp3381
a(V746
VBhabra
tp3382
a(V2517
VJobat
tp3383
a(V2853
VKatthiwara
tp3384
a(V5729
VSondwa
tp3385
a(V6168
VUdaigarh
tp3386
as(V25
VAnuppur
tp3387
(lp3388
(V205
VAnnupur
tp3389
a(V2367
VJaithari
tp3390
a(V3176
VKotma
tp3391
a(V4884
VPushparajgarh
tp3392
as(V449
VRaisen
tp3393
(lp3394
(V361
VBadi Breli
tp3395
a(V683
VBegamganj
tp3396
a(V1809
VGairtganj
tp3397
a(V4367
VObedullaganj
tp3398
a(V5335
VSanchi
tp3399
a(V5635
VSilwani
tp3400
a(V6170
VUdaipura
tp3401
as(V73
VBhind
tp3402
(lp3403
(V281
VAter
tp3404
a(V858
VBhind
tp3405
a(V1973
VGohad
tp3406
a(V3325
VLahar
tp3407
a(V3818
VMehgaon
tp3408
a(V3856
VMihona (Ron)
tp3409
as(V508
VSingrauli
tp3410
(lp3411
(V412
VBaidhan
tp3412
a(V1327
VChitrangi
tp3413
a(V1510
VDeosar
tp3414
as(V95
VBurhanpur
tp3415
(lp3416
(V1076
VBurhanpur
tp3417
a(V2929
VKhaknar
tp3418
as(V564
VUjjain
tp3419
(lp3420
(V362
VBadnagar
tp3421
a(V1932
VGhatiya
tp3422
a(V2905
VKhachrod
tp3423
a(V3531
VMahidpur
tp3424
a(V5918
VTarana
tp3425
a(V6190
VUjjain
tp3426
as(V293
VKhandwa
tp3427
(lp3428
(V447
VBaldi
tp3429
a(V1261
VChhegon Makhan
tp3430
a(V2168
VHarsud
tp3431
a(V2934
VKhalwa
tp3432
a(V2955
VKhandwa
tp3433
a(V4510
VPandhana
tp3434
a(V4853
VPunasa
tp3435
as(V487
VSehore
tp3436
(lp3437
(V261
VAshta
tp3438
a(V1060
VBudni
tp3439
a(V2276
VIchhawar
tp3440
a(V4216
VNasrullaganj
tp3441
a(V5470
VSehore
tp3442
as(V503
VSidhi
tp3443
(lp3444
(V3304
VKusmi
tp3445
a(V3564
VMajholi
tp3446
a(V5065
VRampur Naikin
tp3447
a(V5606
VSidhi (Gopad Banas )
tp3448
a(V5616
VSihawal
tp3449
ass(V11
VGoa
tp3450
(dp3451
(V405
VNorth Goa
tp3452
(lp3453
(V580
VBardez
tp3454
a(V907
VBicholim
tp3455
a(V4714
VPernem
tp3456
a(V4799
VPonda
tp3457
a(V5443
VSattari
tp3458
a(V6115
VTiswadi
tp3459
as(V525
VSouth Goa
tp3460
(lp3461
(V1093
VCanacona
tp3462
a(V3925
VMormugao
tp3463
a(V4899
VQuepem
tp3464
a(V5297
VSalcete
tp3465
a(V5365
VSanguem
tp3466
ass(V5
VBihar
tp3467
(dp3468
(V376
VMuzaffarpur
tp3469
(lp3470
(V312
VAurai
tp3471
a(V500
VBandra
tp3472
a(V998
VBochaha
tp3473
a(V1805
VGaighat
tp3474
a(V2739
VKanti
tp3475
a(V2844
VKatra
tp3476
a(V3282
VKurhani
tp3477
a(V3746
VMarwan
tp3478
a(V3860
VMinapur
tp3479
a(V3940
VMotipur
tp3480
a(V4006
VMuraul
tp3481
a(V4018
VMushahari
tp3482
a(V4580
VParu
tp3483
a(V5258
VSahebganj
tp3484
a(V5290
VSakra
tp3485
a(V5400
VSaraiya
tp3486
as(V132
VDarbhanga
tp3487
(lp3488
(V87
VAlinagar
tp3489
a(V400
VBahadurpur
tp3490
a(V407
VBaheri
tp3491
a(V721
VBenipur
tp3492
a(V964
VBiraul
tp3493
a(V1446
VDarbhanga
tp3494
a(V1894
VGaura Bauram
tp3495
a(V1916
VGhanshyampur
tp3496
a(V2128
VHanuman Nagar
tp3497
a(V2200
VHayaghat
tp3498
a(V2393
VJale
tp3499
a(V2885
VKeoti
tp3500
a(V3043
VKiratpur
tp3501
a(V3212
VKsheshwar Sthan
tp3502
a(V3302
VKusheshwar Sthan East
tp3503
a(V3675
VManigachhi
tp3504
a(V5661
VSingwara
tp3505
a(V5923
VTard Dih
tp3506
as(V442
VPurnea
tp3507
(lp3508
(V122
VAmaur
tp3509
a(V421
VBaisa
tp3510
a(V422
VBaisi
tp3511
a(V533
VBanmankhi
tp3512
a(V594
VBarhara Kothi
tp3513
a(V834
VBhawanipur
tp3514
a(V1396
VDagarua
tp3515
a(V1545
VDhamdaha
tp3516
a(V2383
VJalalgarh
tp3517
a(V2805
VKasba
tp3518
a(V3208
VKritya Nand Nagar
tp3519
a(V4873
VPurnia East
tp3520
a(V5213
VRupauli
tp3521
a(V5758
VSri Nagar
tp3522
as(V165
VEast Champaran
tp3523
(lp3524
(V17
VAdapur
tp3525
a(V234
VAreraj
tp3526
a(V518
VBanjaria
tp3527
a(V523
VBankatwa
tp3528
a(V1117
VChakia or Pipra
tp3529
a(V1260
VChhauradanaw
tp3530
a(V1317
VChiraiya
tp3531
a(V1540
VDhaka
tp3532
a(V1944
VGhorasahan
tp3533
a(V2167
VHarsidhhi
tp3534
a(V2663
VKalyanpur
tp3535
a(V2890
VKesaria
tp3536
a(V3185
VKotwa
tp3537
a(V3485
VMadhuban
tp3538
a(V3823
VMehsi
tp3539
a(V3939
VMotihari
tp3540
a(V4188
VNarkatia or Chhauradano
tp3541
a(V4426
VPaharpur
tp3542
a(V4438
VPakri Dayal
tp3543
a(V4589
VPatahi
tp3544
a(V4732
VPhenhara
tp3545
a(V4766
VPipra Kothi
tp3546
a(V5042
VRamgarhwa
tp3547
a(V5131
VRaxaul
tp3548
a(V5362
VSangrampur
tp3549
a(V5781
VSugauli
tp3550
a(V5963
VTetaria
tp3551
a(V6158
VTurkaulia
tp3552
as(V192
VGaya
tp3553
(lp3554
(V120
VAmas
tp3555
a(V301
VAtri
tp3556
a(V524
VBanke Bazar
tp3557
a(V555
VBarachatti
tp3558
a(V663
VBathani
tp3559
a(V696
VBelaganj
tp3560
a(V1000
VBodh Gaya
tp3561
a(V1002
VBodhgaya
tp3562
a(V1650
VDobhi
tp3563
a(V1695
VDumaria
tp3564
a(V1772
VFatehpur
tp3565
a(V2077
VGuraru
tp3566
a(V2086
VGurua
tp3567
a(V2286
VImamganj
tp3568
a(V3004
VKhijasarai
tp3569
a(V3110
VKonch
tp3570
a(V3703
VManpur
tp3571
a(V3891
VMohanpur
tp3572
a(V3901
VMohra
tp3573
a(V4061
VNagar
tp3574
a(V4541
VParaiya
tp3575
a(V5559
VSherghati
tp3576
a(V5905
VTankuppa
tp3577
a(V5942
VTekari
tp3578
a(V6434
VWazirganj
tp3579
as(V263
VKaimur (Bhabhua)
tp3580
(lp3581
(V21
VAdhaura
tp3582
a(V744
VBhabhua
tp3583
a(V768
VBhagwanpur
tp3584
a(V1108
VChainpur
tp3585
a(V1144
VChand
tp3586
a(V1715
VDurgawati
tp3587
a(V3223
VKudra
tp3588
a(V3886
VMohania
tp3589
a(V4354
VNuawan
tp3590
a(V5038
VRamgarh
tp3591
a(V5060
VRampur
tp3592
as(V342
VMadhubani
tp3593
(lp3594
(V186
VAndhrartharhi
tp3595
a(V344
VBabu Barhi
tp3596
a(V650
VBasopatti
tp3597
a(V720
VBenipatti
tp3598
a(V978
VBisfi
tp3599
a(V1943
VGhoghardiha
tp3600
a(V2157
VHarlakhi
tp3601
a(V2355
VJainagar
tp3602
a(V2495
VJhanjharpur
tp3603
a(V2657
VKaluahi
tp3604
a(V2923
VKhajauli
tp3605
a(V3030
VKhutauna
tp3606
a(V3321
VLadania
tp3607
a(V3347
VLakhnaur
tp3608
a(V3391
VLaukahi
tp3609
a(V3480
VMadhepur
tp3610
a(V3490
VMadhwapur
tp3611
a(V4508
VPandaul
tp3612
a(V4743
VPhulparas
tp3613
a(V4927
VRahika
tp3614
a(V4991
VRajnagar
tp3615
as(V575
VVaishali
tp3616
(lp3617
(V770
VBhagwanpur
tp3618
a(V912
VBidupur
tp3619
a(V1221
VChehrakala
tp3620
a(V1517
VDesari
tp3621
a(V2017
VGoroul
tp3622
a(V2106
VHajipur
tp3623
a(V2436
VJandaha
tp3624
a(V3362
VLalganj
tp3625
a(V3536
VMahnar
tp3626
a(V3543
VMahua
tp3627
a(V4602
VPatepur
tp3628
a(V4604
VPaterhi Belsar
tp3629
a(V4915
VRaghopur
tp3630
a(V4965
VRajapakar
tp3631
a(V5257
VSahdai Bujurg
tp3632
a(V6262
VVaishali
tp3633
as(V496
VSheohar
tp3634
(lp3635
(V1706
VDumri Katsari
tp3636
a(V4767
VPiprahi
tp3637
a(V4872
VPurnahia
tp3638
a(V5557
VSheohar
tp3639
a(V5926
VTariyani
tp3640
as(V467
VRohtas
tp3641
(lp3642
(V58
VAkhorhi Gola
tp3643
a(V937
VBikramganj
tp3644
a(V1227
VChenari
tp3645
a(V1472
VDawath
tp3646
a(V1488
VDehri
tp3647
a(V1638
VDinara
tp3648
a(V2754
VKarakat
tp3649
a(V2774
VKargahar
tp3650
a(V2873
VKchas
tp3651
a(V4215
VNasri Ganj
tp3652
a(V4231
VNauhatta
tp3653
a(V4336
VNokha
tp3654
a(V4999
VRajpur
tp3655
a(V5185
VRohtas
tp3656
a(V5369
VSanjhauli
tp3657
a(V5429
VSasaram
tp3658
a(V5554
VSheo Sagar
tp3659
a(V5827
VSuryapura
tp3660
a(V6084
VTilauthu
tp3661
as(V327
VLakhisarai
tp3662
(lp3663
(V561
VBarahiya
tp3664
a(V2118
VHalsi
tp3665
a(V3345
VLakhisarai
tp3666
a(V4761
VPiparia
tp3667
a(V5041
VRamgarh Chowk
tp3668
a(V5825
VSuryagarha
tp3669
as(V532
VSupaul
tp3670
(lp3671
(V633
VBasantpur
tp3672
a(V1256
VChhatapur
tp3673
a(V3051
VKishanpur
tp3674
a(V3721
VMarauna
tp3675
a(V4315
VNirmalli
tp3676
a(V4765
VPipra
tp3677
a(V4825
VPratapganj
tp3678
a(V4914
VRaghopur
tp3679
a(V5395
VSaraigarh Bhaptiahi
tp3680
a(V5811
VSupaul
tp3681
a(V6139
VTriveniganj
tp3682
as(V373
VMunger
tp3683
(lp3684
(V257
VAsharganj
tp3685
a(V603
VBariarpur
tp3686
a(V1580
VDharhara
tp3687
a(V2410
VJamalpur
tp3688
a(V2965
VKharagpur
tp3689
a(V3996
VMunger Sadar
tp3690
a(V5360
VSangrampur
tp3691
a(V5920
VTarapur
tp3692
a(V5964
VTetia Bamber
tp3693
as(V341
VMadhepura
tp3694
(lp3695
(V70
VAlamnagar
tp3696
a(V917
VBihari Ganj
tp3697
a(V1207
VChausa
tp3698
a(V1822
VGamharia
tp3699
a(V1910
VGhailar
tp3700
a(V2092
VGwalpara
tp3701
a(V3246
VKumarkhand
tp3702
a(V3481
VMadhepura
tp3703
a(V4012
VMurliganj
tp3704
a(V4862
VPuraini
tp3705
a(V5542
VShankarpur
tp3706
a(V5656
VSingheshwar
tp3707
a(V6172
VUdakishanganj
tp3708
as(V75
VBhojpur
tp3709
(lp3710
(V32
VAgion
tp3711
a(V215
VArah
tp3712
a(V593
VBarhara
tp3713
a(V919
VBihia
tp3714
a(V1190
VCharpokhari
tp3715
a(V1872
VGarhani
tp3716
a(V2341
VJagdishpur
tp3717
a(V3082
VKoilwar
tp3718
a(V4773
VPiro
tp3719
a(V5250
VSahar
tp3720
a(V5338
VSandesh
tp3721
a(V5518
VShahpur
tp3722
a(V5921
VTarari
tp3723
a(V6186
VUdwantnagar
tp3724
as(V28
VArwal
tp3725
(lp3726
(V253
VArwal
tp3727
a(V538
VBanshi Surajpur
tp3728
a(V2624
VKaler
tp3729
a(V2792
VKarpi
tp3730
a(V3291
VKurtha
tp3731
as(V512
VSitamarhi
tp3732
(lp3733
(V428
VBajpatti
tp3734
a(V582
VBargania
tp3735
a(V665
VBathnaha
tp3736
a(V711
VBelsand
tp3737
a(V1013
VBokhra
tp3738
a(V1351
VChoraut
tp3739
a(V1702
VDumra
tp3740
a(V3567
VMajor Ganj
tp3741
a(V4159
VNanpur
tp3742
a(V4566
VParihar
tp3743
a(V4574
VParsauni
tp3744
a(V4860
VPupari
tp3745
a(V5167
VRiga
tp3746
a(V5209
VRunnisaidpur
tp3747
a(V5726
VSonbarsa
tp3748
a(V5812
VSuppi
tp3749
a(V5823
VSursand
tp3750
as(V249
VJamui
tp3751
(lp3752
(V86
VAliganj
tp3753
a(V596
VBarhat
tp3754
a(V1111
VChakai
tp3755
a(V1953
VGidhaur
tp3756
a(V2431
VJamui
tp3757
a(V2487
VJhajha
tp3758
a(V2914
VKhaira
tp3759
a(V3399
VLaxmipur
tp3760
a(V5620
VSikandra
tp3761
a(V5737
VSono
tp3762
as(V395
VNawada
tp3763
(lp3764
(V55
VAkbarpur
tp3765
a(V2030
VGovindpur
tp3766
a(V2232
VHisua
tp3767
a(V2808
VKashichak
tp3768
a(V2857
VKauakol
tp3769
a(V3846
VMeskaur
tp3770
a(V4181
VNardiganj
tp3771
a(V4185
VNarhat
tp3772
a(V4247
VNawada
tp3773
a(V4437
VPakri Barwan
tp3774
a(V4971
VRajauli
tp3775
a(V5178
VRoh
tp3776
a(V5669
VSirdala
tp3777
a(V6424
VWarsalliganj
tp3778
as(V47
VBanka
tp3779
(lp3780
(V117
VAmarpur
tp3781
a(V519
VBanka
tp3782
a(V560
VBarahat
tp3783
a(V668
VBaunsi
tp3784
a(V704
VBelhar
tp3785
a(V1140
VChanan
tp3786
a(V1614
VDhoraiya
tp3787
a(V1788
VFulli Dumar
tp3788
a(V2842
VKatoria
tp3789
a(V4972
VRajaun
tp3790
a(V5530
VShambhuganj
tp3791
as(V495
VShekhpura
tp3792
(lp3793
(V235
VAriari
tp3794
a(V578
VBarbigha
tp3795
a(V1247
VChewara
tp3796
a(V1925
VGhat Kusumbha
tp3797
a(V5549
VShekhopur Sarai
tp3798
a(V5550
VShekhpura
tp3799
as(V291
VKhagaria
tp3800
(lp3801
(V80
VAlauli
tp3802
a(V700
VBeldaur
tp3803
a(V1208
VChautham
tp3804
a(V1967
VGogari
tp3805
a(V2911
VKhagaria
tp3806
a(V3707
VMansi
tp3807
a(V4558
VParbatta
tp3808
as(V285
VKatihar
tp3809
(lp3810
(V47
VAjamnagar
tp3811
a(V142
VAmdabad
tp3812
a(V477
VBalrampur
tp3813
a(V570
VBarari
tp3814
a(V623
VBarsoi
tp3815
a(V1425
VDandkhora
tp3816
a(V1757
VFalka
tp3817
a(V2171
VHasanganj
tp3818
a(V2574
VKadwa
tp3819
a(V2837
VKatihar
tp3820
a(V3139
VKorha
tp3821
a(V3289
VKursela
tp3822
a(V3676
VManihari
tp3823
a(V3706
VMansahi
tp3824
a(V4822
VPranpur
tp3825
a(V5324
VSameli
tp3826
as(V299
VKishanganj
tp3827
(lp3828
(V396
VBahadurganj
tp3829
a(V1630
VDighalbank
tp3830
a(V3049
VKishanganj
tp3831
a(V3058
VKoch Dhaman
tp3832
a(V4815
VPothia
tp3833
a(V5962
VTerhagachhi
tp3834
a(V5973
VThakurganj
tp3835
as(V235
VJahanabad
tp3836
(lp3837
(V1948
VGhosi
tp3838
a(V2255
VHulashganj
tp3839
a(V2350
VJahanabad
tp3840
a(V2595
VKako
tp3841
a(V3573
VMakhdumpur
tp3842
a(V3874
VModanganj
tp3843
a(V5121
VRatni Faridpur
tp3844
as(V67
VBhagalpur
tp3845
(lp3846
(V920
VBihpur
tp3847
a(V1895
VGauradih
tp3848
a(V2006
VGopalpur
tp3849
a(V2315
VIsmilepur
tp3850
a(V2340
VJagdishpur
tp3851
a(V2577
VKahalgaon
tp3852
a(V2974
VKharik
tp3853
a(V4176
VNarayanpur
tp3854
a(V4223
VNathnagar
tp3855
a(V4227
VNaugachhia
tp3856
a(V4774
VPirpaiti
tp3857
a(V5155
VRengra Chowk
tp3858
a(V5225
VSabaur
tp3859
a(V5366
VSanhaula
tp3860
a(V5513
VShahkund
tp3861
a(V5795
VSultanganj
tp3862
as(V107
VChapra(Saran)
tp3863
(lp3864
(V155
VAmnaur
tp3865
a(V513
VBaniapur
tp3866
a(V1450
VDariyapur
tp3867
a(V1631
VDighwara
tp3868
a(V1732
VEkma
tp3869
a(V1882
VGarkha
tp3870
a(V2317
VIsuapur
tp3871
a(V2386
VJalalpur
tp3872
a(V3328
VLahiadpur
tp3873
a(V3572
VMaker
tp3874
a(V3690
VManjhi
tp3875
a(V3729
VMarhaura
tp3876
a(V3752
VMashrakh
tp3877
a(V4078
VNagra
tp3878
a(V4496
VPanapur
tp3879
a(V4573
VParsa
tp3880
a(V5173
VRivilganj
tp3881
a(V5231
VSadar Chapra
tp3882
a(V5739
VSonpur
tp3883
a(V5916
VTaraiya
tp3884
as(V384
VNalanda
tp3885
(lp3886
(V276
VAsthawan
tp3887
a(V717
VBen
tp3888
a(V916
VBihar Sharif
tp3889
a(V956
VBind
tp3890
a(V1155
VChandi
tp3891
a(V1730
VEkangarsarai
tp3892
a(V1957
VGiriak
tp3893
a(V2158
VHarnaut
tp3894
a(V2212
VHilsa
tp3895
a(V2314
VIslampur
tp3896
a(V2753
VKarai Parsurai
tp3897
a(V2848
VKatri Sarai
tp3898
a(V4067
VNagarnausa
tp3899
a(V4341
VNoorsarai
tp3900
a(V4583
VParwalpur
tp3901
a(V4929
VRahui
tp3902
a(V4982
VRajgir
tp3903
a(V5416
VSarmera
tp3904
a(V5629
VSilaw
tp3905
a(V5998
VTharthari
tp3906
as(V201
VGopalganj
tp3907
(lp3908
(V416
VBaikunthpur
tp3909
a(V573
VBarauli
tp3910
a(V885
VBhore
tp3911
a(V2004
VGopalganj
tp3912
a(V2191
VHathwa
tp3913
a(V2822
VKataiya
tp3914
a(V3217
VKuchaikot
tp3915
a(V3685
VManjha
tp3916
a(V4498
VPanchdewari
tp3917
a(V4744
VPhulwaria
tp3918
a(V5610
VSidhwalia
tp3919
a(V6003
VThawe
tp3920
a(V6166
VUchkagaon
tp3921
a(V6361
VVijaypur
tp3922
as(V26
VAraria
tp3923
(lp3924
(V225
VAraria
tp3925
a(V809
VBhargama
tp3926
a(V1787
VForbisganj
tp3927
a(V2530
VJoukihat
tp3928
a(V3288
VKursakanta
tp3929
a(V4201
VNarpatganj
tp3930
a(V4455
VPalasi
tp3931
a(V5093
VRaniganj
tp3932
a(V5628
VSikti
tp3933
as(V62
VBegusarai
tp3934
(lp3935
(V346
VBacchwara
tp3936
a(V431
VBakhri
tp3937
a(V464
VBaliya
tp3938
a(V575
VBarauni
tp3939
a(V687
VBegusarai
tp3940
a(V771
VBhagwanpur
tp3941
a(V972
VBirpur
tp3942
a(V1239
VCheriabariarpur
tp3943
a(V1352
VChorhani
tp3944
a(V1423
VDandari
tp3945
a(V1875
VGarhpura
tp3946
a(V3010
VKhodwantpur
tp3947
a(V3708
VMansurchak
tp3948
a(V3771
VMatihani
tp3949
a(V4256
VNawkothi
tp3950
a(V5260
VSahebpur Kamal
tp3951
a(V5531
VShamho Akha Kurha
tp3952
a(V5938
VTeghara
tp3953
as(V475
VSaharsa
tp3954
(lp3955
(V532
VBanma Itahari
tp3956
a(V2578
VKahara
tp3957
a(V3534
VMahishi
tp3958
a(V4232
VNauhatta
tp3959
a(V4598
VPatarghat
tp3960
a(V5304
VSalkhua
tp3961
a(V5433
VSatarkateya
tp3962
a(V5449
VSaurbazar
tp3963
a(V5644
VSimri Bakhtiarpur
tp3964
a(V5725
VSonbarsa
tp3965
as(V589
VWest Champaran
tp3966
(lp3967
(V419
VBairia
tp3968
a(V737
VBettiah
tp3969
a(V741
VBgaha
tp3970
a(V861
VBhitaha
tp3971
a(V1181
VChanpatia
tp3972
a(V1784
Vfggfggfgg
tp3973
a(V1891
VGaunaha
tp3974
a(V3393
VLauriya
tp3975
a(V3486
VMadhubani
tp3976
a(V3552
VMainatanr
tp3977
a(V3688
VManjhaulia
tp3978
a(V4189
VNarkatiaganj
tp3979
a(V4235
VNautan
tp3980
a(V4760
VPiparasi
tp3981
a(V5049
VRamnagar
tp3982
a(V5605
VSidhaw
tp3983
a(V5627
VSikta
tp3984
a(V5970
VThakrahan
tp3985
a(V6474
VYogapatti
tp3986
as(V515
VSiwan
tp3987
(lp3988
(V185
VAndar
tp3989
a(V595
VBarharia
tp3990
a(V634
VBasantpur
tp3991
a(V772
VBhagwanpur Hat
tp3992
a(V1443
VDarauli
tp3993
a(V1444
VDaraundha
tp3994
a(V2012
VGoraiyakothi
tp3995
a(V2090
VGuthani
tp3996
a(V2176
VHasanpura
tp3997
a(V2265
VHussainganj
tp3998
a(V3352
VLakri Nabiganj
tp3999
a(V3520
VMaharajganj
tp4000
a(V3557
VMairwa
tp4001
a(V4234
VNautan
tp4002
a(V4500
VPanchrukhi
tp4003
a(V4919
VRaghunathpur
tp4004
a(V5689
VSiswan
tp4005
a(V5699
VSiwan
tp4006
a(V6485
VZiradei
tp4007
as(V424
VPatna
tp4008
(lp4009
(V286
VAthmalgola
tp4010
a(V432
VBakhtiarpur
tp4011
a(V590
VBarh
tp4012
a(V697
VBelchhi
tp4013
a(V922
VBihta
tp4014
a(V936
VBikram
tp4015
a(V1421
VDanapur
tp4016
a(V1428
VDaniyawan
tp4017
a(V1552
VDhanarua
tp4018
a(V1692
VDulhin Bazar
tp4019
a(V1779
VFatuhan
tp4020
a(V1789
VFulwari
tp4021
a(V1949
VGhoswari
tp4022
a(V3028
VKhushrupur
tp4023
a(V3660
VManer
tp4024
a(V3750
VMasaurhi
tp4025
a(V3905
VMokama
tp4026
a(V4226
VNaubatpur
tp4027
a(V4467
VPaliganj
tp4028
a(V4505
VPandarak
tp4029
a(V4624
VPatna Sadar
tp4030
a(V4859
VPunpun
tp4031
a(V5326
VSampatchak
tp4032
as(V96
VBuxar
tp4033
(lp4034
(V1049
VBrahmpur
tp4035
a(V1086
VBuxar
tp4036
a(V1119
VChakki
tp4037
a(V1200
VChaugai
tp4038
a(V1206
VChausa
tp4039
a(V1703
VDumraon
tp4040
a(V2320
VItarhi
tp4041
a(V2891
VKesath
tp4042
a(V4252
VNawanagar
tp4043
a(V4997
VRajpur
tp4044
a(V5643
VSimri
tp4045
as(V479
VSamastipur
tp4046
(lp4047
(V899
VBibhutipur
tp4048
a(V993
VBithan
tp4049
a(V1406
VDalsingh Sarai
tp4050
a(V2175
VHasanpur
tp4051
a(V2665
VKalyanpur
tp4052
a(V2961
VKhanpur
tp4053
a(V3888
VMohanpur
tp4054
a(V3897
VMohiuddinnagar
tp4055
a(V3932
VMorwa
tp4056
a(V4627
VPatori
tp4057
a(V4881
VPusa
tp4058
a(V5199
VRosera
tp4059
a(V5318
VSamastipur
tp4060
a(V5399
VSarairanjan
tp4061
a(V5579
VShivaji Nagar
tp4062
a(V5657
VSinghia
tp4063
a(V5856
VTajpur
tp4064
a(V6189
VUjiarpur
tp4065
a(V6353
VVidya Pati Nagar
tp4066
a(V6422
VWarisnagar
tp4067
as(V32
VAurangabad
tp4068
(lp4069
(V316
VAurangabad
tp4070
a(V625
VBarun
tp4071
a(V1468
VDaudnagar
tp4072
a(V1493
VDeo
tp4073
a(V1972
VGoh
tp4074
a(V2180
VHaspura
tp4075
a(V3315
VKutumba
tp4076
a(V3465
VMadanpur
tp4077
a(V4043
VNabinagar
tp4078
a(V4368
VObra
tp4079
a(V4911
VRafiganj
tp4080
ass(V18
VKerala
tp4081
(dp4082
(V546
VThrissur
tp4083
(lp4084
(V210
VAnthikkad
tp4085
a(V1126
VChalakkudy
tp4086
a(V1209
VChavakkad
tp4087
a(V1242
VCherpu
tp4088
a(V1357
VChowannur
tp4089
a(V2307
VIrinjalakuda
tp4090
a(V3063
VKodakara
tp4091
a(V3072
VKodungallur
tp4092
a(V3580
VMala
tp4093
a(V3761
VMathilakam
tp4094
a(V3975
VMullassery
tp4095
a(V4383
VOllukkara
tp4096
a(V4652
VPazhayannur
tp4097
a(V4892
VPuzhakkal
tp4098
a(V5978
VThalikulam
tp4099
a(V6321
VVellangallur
tp4100
a(V6398
VWadakkanchery
tp4101
as(V349
VMalappuram
tp4102
(lp4103
(V233
VAreacode
tp4104
a(V3118
VKondotty
tp4105
a(V3314
VKuttippuram
tp4106
a(V3582
VMalappuram
tp4107
a(V3692
VMankada
tp4108
a(V4302
VNilambur
tp4109
a(V4710
VPerinthalmanna
tp4110
a(V4716
VPerumpadappu
tp4111
a(V4798
VPonani
tp4112
a(V5909
VTanur
tp4113
a(V6105
VTirur
tp4114
a(V6106
VTirurangadi
tp4115
a(V6333
VVengara
tp4116
a(V6414
VWandoor
tp4117
as(V8
VAlappuzha
tp4118
(lp4119
(V130
VAmbalapuzha
tp4120
a(V255
VAryad
tp4121
a(V804
VBharanikavu
tp4122
a(V1136
VChampakulam
tp4123
a(V1231
VChengannur
tp4124
a(V2152
VHaripad
tp4125
a(V2721
VKanjikuzhy
tp4126
a(V3780
VMavelikara
tp4127
a(V4027
VMuthukulam
tp4128
a(V4635
VPattanakkad
tp4129
a(V6072
VThycattussery
tp4130
a(V6317
VVeliyanad
tp4131
as(V313
VKottayam
tp4132
(lp4133
(V1746
VErattupetta
tp4134
a(V1753
VEttumanoor
tp4135
a(V2573
VKaduthuruthy
tp4136
a(V2722
VKanjirappally
tp4137
a(V3356
VLalam
tp4138
a(V3467
VMadappally
tp4139
a(V4478
VPallom
tp4140
a(V4489
VPampady
tp4141
a(V6248
VUzhavoor
tp4142
a(V6261
VVaikom
tp4143
a(V6299
VVazhoor
tp4144
as(V587
VWayanad
tp4145
(lp4146
(V2654
VKalpetta
tp4147
a(V3622
VMananthavady
tp4148
a(V5220
VS.Battery
tp4149
as(V422
VPathanamthitta
tp4150
(lp4151
(V1734
VElanthur
tp4152
a(V3083
VKoipuram
tp4153
a(V3122
VKonni
tp4154
a(V3233
VKulanada
tp4155
a(V3601
VMallappally
tp4156
a(V4504
VPandalam
tp4157
a(V4544
VParakode
tp4158
a(V4846
VPulikeezh
tp4159
a(V5102
VRanny
tp4160
as(V172
VErnakulam
tp4161
(lp4162
(V81
VAlengad
tp4163
a(V198
VAnkamaly
tp4164
a(V1726
VEdappally
tp4165
a(V3124
VKoovappady
tp4166
a(V3165
VKothamangalam
tp4167
a(V3969
VMulanthuruthy
tp4168
a(V4030
VMuvatupuzha
tp4169
a(V4479
VPalluruthy
tp4170
a(V4490
VPampakuda
tp4171
a(V4543
VParakkadavu
tp4172
a(V4556
VParavur
tp4173
a(V6254
VVadavucode
tp4174
a(V6298
VVazhakkulam
tp4175
a(V6394
VVypeen
tp4176
a(V6395
VVyttila
tp4177
as(V283
VKasaragod
tp4178
(lp4179
(V2716
VKanhangad
tp4180
a(V2804
VKasaragod
tp4181
a(V3684
VManjeshwar
tp4182
a(V4304
VNileshwar
tp4183
as(V411
VPalakkad
tp4184
(lp4185
(V79
VAlathur
tp4186
a(V304
VAttappady
tp4187
a(V1335
VChittur
tp4188
a(V3097
VKollengode
tp4189
a(V3316
VKuzhalmannam
tp4190
a(V3581
VMalampuzha
tp4191
a(V3695
VMannarkkad
tp4192
a(V4277
VNenmara
tp4193
a(V4399
VOttappalam
tp4194
a(V4445
VPalakkad
tp4195
a(V4632
VPattambi
tp4196
a(V5221
VS.K.Puram
tp4197
a(V6064
VThrithala
tp4198
as(V272
VKannur
tp4199
(lp4200
(V1725
VEdakkad
tp4201
a(V2306
VIrikkur
tp4202
a(V2308
VIritty
tp4203
a(V2734
VKannur
tp4204
a(V3311
VKuthuparamba
tp4205
a(V4651
VPayyanur
tp4206
a(V4707
VPeravoor
tp4207
a(V5874
VTaliparamba
tp4208
a(V5977
VThalasseri
tp4209
as(V544
VThiruvananthapuram
tp4210
(lp4211
(V285
VAthiyannur
tp4212
a(V1320
VChirayinkeezh
tp4213
a(V2872
VKazhakkuttam
tp4214
a(V3033
VKilimanoor
tp4215
a(V4263
VNedumangad
tp4216
a(V4276
VNemom
tp4217
a(V4552
VParassala
tp4218
a(V4715
VPerumkadavila
tp4219
a(V6161
VTvm(R)
tp4220
a(V6279
VVamanapuram
tp4221
a(V6289
VVarkala
tp4222
a(V6320
VVellanad
tp4223
as(V314
VKozhikode
tp4224
(lp4225
(V480
VBalussery
tp4226
a(V1223
VChelannur
tp4227
a(V3075
VKoduvally
tp4228
a(V3196
VKozhikode
tp4229
a(V3268
VKunnamangulam
tp4230
a(V3270
VKunnummel
tp4231
a(V3827
VMelady
tp4232
a(V4529
VPanthalayani
tp4233
a(V4704
VPerambra
tp4234
a(V6046
VThodannur
tp4235
a(V6154
VTuneri
tp4236
a(V6250
VVadakara
tp4237
as(V307
VKollam
tp4238
(lp4239
(V180
VAnchal
tp4240
a(V181
VAnchalumoodu
tp4241
a(V1098
VChadayamangalam
tp4242
a(V1210
VChavara
tp4243
a(V1334
VChittumala
tp4244
a(V2322
VIthikkara
tp4245
a(V2798
VKarunagappally
tp4246
a(V3182
VKottarakkara
tp4247
a(V3961
VMukhathala
tp4248
a(V4366
VOachira
tp4249
a(V4607
VPathanapuram
tp4250
a(V5430
VSasthamkotta
tp4251
a(V6349
VVettikkavala
tp4252
as(V228
VIdukki
tp4253
(lp4254
(V23
VAdimaly
tp4255
a(V328
VAzhutha
tp4256
a(V1532
VDevikulam
tp4257
a(V1735
VElemdesam
tp4258
a(V2280
VIdukki
tp4259
a(V2851
VKattappana
tp4260
a(V4264
VNedumkandom
tp4261
a(V6047
VThodupuzha
tp4262
ass(V9
VDaman And Diu (UT)
tp4263
(dp4264
(V128
VDaman And Diu
tp4265
(lp4266
(V854
VBhimpore
tp4267
a(V1382
VDabhel
tp4268
a(V1409
VDamanwada
tp4269
a(V1646
VDiu
tp4270
a(V2696
VKanchigam
tp4271
a(V3506
VMagarwada
tp4272
a(V3744
VMarwad
tp4273
a(V4568
VPariyari
tp4274
a(V6290
VVarkund
tp4275
ass(V1
VAndaman And Nicobar Islands (UT)
tp4276
(dp4277
(V22
VAndaman
tp4278
(lp4279
s(V401
VNicobar
tp4280
(lp4281
ss(V27
VPondicherry (UT)
tp4282
(dp4283
s(V13
VHaryana
tp4284
(dp4285
(V599
VYamuna Nagar
tp4286
(lp4287
(V944
VBilaspur
tp4288
a(V1250
VChhachhrauli
tp4289
a(V2330
VJagadhri
tp4290
a(V4023
VMustafabad
tp4291
a(V4906
VRadaur
tp4292
a(V5235
VSadhaura
tp4293
as(V74
VBhiwani
tp4294
(lp4295
(V360
VBadhra
tp4296
a(V671
VBawani Khera
tp4297
a(V867
VBhiwani
tp4298
a(V1393
VDadri-I
tp4299
a(V1394
VDadri-II
tp4300
a(V2586
VKairu
tp4301
a(V3429
VLoharu
tp4302
a(V5701
VSiwani
tp4303
a(V6132
VTosham
tp4304
as(V208
VGurgaon
tp4305
(lp4306
(V1766
VFarukh Nagar
tp4307
a(V1786
VFirozepur Jhirkha
tp4308
a(V2081
VGurgaon
tp4309
a(V4073
VNagina
tp4310
a(V4355
VNuh
tp4311
a(V4601
VPataudi
tp4312
a(V4858
VPunhana
tp4313
a(V5712
VSohna
tp4314
a(V5910
VTaoru
tp4315
as(V464
VRewari
tp4316
(lp4317
(V1
VBawal
tp4318
a(V2463
VJatusana
tp4319
a(V3012
VKhol At Rewari
tp4320
a(V4087
VNahar
tp4321
a(V5166
VRewari
tp4322
as(V222
VHisar
tp4323
(lp4324
(V15
VAdampur
tp4325
a(V35
VAgroha
tp4326
a(V630
VBarwala
tp4327
a(V2124
VHansi I
tp4328
a(V2125
VHansi-II
tp4329
a(V2230
VHisar I
tp4330
a(V2231
VHisar-II
tp4331
a(V4196
VNarnaund
tp4332
a(V6193
VUklana
tp4333
as(V416
VPanipat
tp4334
(lp4335
(V550
VBapauli
tp4336
a(V2316
VIsrana
tp4337
a(V3493
VMadlauda
tp4338
a(V4519
VPanipat
tp4339
a(V5313
VSamalkha
tp4340
as(V14
VAmbala
tp4341
(lp4342
(V129
VAmbala
tp4343
a(V569
VBarara
tp4344
a(V4160
VNaraingarh
tp4345
a(V5524
VShahzadpur
tp4346
as(V177
VFaridabad
tp4347
(lp4348
(V466
VBallabgarh
tp4349
a(V1761
VFaridabad
tp4350
a(V2182
VHassanpur
tp4351
a(V2188
VHathin
tp4352
a(V2234
VHodal
tp4353
a(V4483
VPalwal
tp4354
as(V414
VPanchkula
tp4355
(lp4356
(V629
VBarwala
tp4357
a(V3927
VMorni
tp4358
a(V4759
VPinjore
tp4359
a(V4949
VRaipur Rani
tp4360
as(V281
VKarnal
tp4361
(lp4362
(V273
VAssandh
tp4363
a(V1920
VGharaunda
tp4364
a(V2298
VIndri
tp4365
a(V2790
VKarnal
tp4366
a(V4306
VNilo Kheri
tp4367
a(V4320
VNissing
tp4368
as(V519
VSonepat
tp4369
(lp4370
(V1826
VGanaur
tp4371
a(V1974
VGohana
tp4372
a(V2835
VKathura
tp4373
a(V2975
VKharkhauda
tp4374
a(V3954
VMudlana
tp4375
a(V4931
VRai
tp4376
a(V5730
VSonepat
tp4377
as(V511
VSirsa
tp4378
(lp4379
(V558
VBaragudha
tp4380
a(V1386
VDabwali
tp4381
a(V1740
VEllenabad
tp4382
a(V4224
VNathusari Chopta
tp4383
a(V4377
VOdhan
tp4384
a(V5090
VRania
tp4385
a(V5680
VSirsa
tp4386
as(V264
VKaithal
tp4387
(lp4388
(V2057
VGuhla
tp4389
a(V2588
VKaithal
tp4390
a(V2621
VKalayat
tp4391
a(V4855
VPundri
tp4392
a(V4994
VRajound
tp4393
as(V466
VRohtak
tp4394
(lp4395
(V2614
VKalanaur
tp4396
a(V3335
VLakhan Majra
tp4397
a(V3814
VMeham
tp4398
a(V5184
VRohtak
tp4399
a(V5327
VSampla
tp4400
as(V180
VFatehabad
tp4401
(lp4402
(V825
VBhattu Kalan
tp4403
a(V890
VBhuna
tp4404
a(V1767
VFatehabad
tp4405
a(V5118
VRatia
tp4406
a(V6124
VTohana
tp4407
as(V259
VJind
tp4408
(lp4409
(V82
VAlewa
tp4410
a(V2508
VJind
tp4411
a(V2537
VJulana
tp4412
a(V4212
VNarwana
tp4413
a(V4753
VPillukhera
tp4414
a(V5239
VSafidon
tp4415
a(V6162
VUchana Kalan
tp4416
as(V320
VKurukshetra
tp4417
(lp4418
(V338
VBabain
tp4419
a(V3324
VLadwa
tp4420
a(V4685
VPehowa
tp4421
a(V5506
VShahbad
tp4422
a(V5991
VThanesar
tp4423
as(V254
VJhajjar
tp4424
(lp4425
(V397
VBahadurgarh
tp4426
a(V725
VBeri
tp4427
a(V2488
VJhajjar
tp4428
a(V3758
VMatenhail
tp4429
a(V5263
VSahlawas
tp4430
as(V366
VMohindergarh
tp4431
(lp4432
(V280
VAteli Nangal
tp4433
a(V2719
VKanina
tp4434
a(V3896
VMohindergarh
tp4435
a(V4152
VNangal Chaudhary
tp4436
a(V4195
VNarnaul
tp4437
ass(V35
VWest Bengal
tp4438
(dp4439
(V523
VSouth 24-Parganas
tp4440
(lp4441
(V624
VBaruipur
tp4442
a(V632
VBasanti
tp4443
a(V796
VBhangar-I
tp4444
a(V797
VBhangar-II
tp4445
a(V984
VBishnupur-I
tp4446
a(V985
VBishnupur-II
tp4447
a(V1055
VBudge Budge-I
tp4448
a(V1056
VBudge Budge-II
tp4449
a(V1094
VCanning-I
tp4450
a(V1095
VCanning-II
tp4451
a(V1624
VDiamond-Harbour-I
tp4452
a(V1625
VDiamond-Harbour-II
tp4453
a(V1758
VFalta
tp4454
a(V2018
VGosaba
tp4455
a(V2474
VJaynagar-I
tp4456
a(V2475
VJaynagar-II
tp4457
a(V2593
VKakdwip
tp4458
a(V3240
VKulpi
tp4459
a(V3241
VKultali
tp4460
a(V3507
VMagrahat-I
tp4461
a(V3508
VMagrahat-II
tp4462
a(V3649
VMandirbazar
tp4463
a(V3766
VMathurapur-I
tp4464
a(V3767
VMathurapur-II
tp4465
a(V4124
VNamkhana
tp4466
a(V4615
VPatharpratima
tp4467
a(V5244
VSagar
tp4468
a(V5724
VSonarpur
tp4469
a(V5967
VTha-Maheshtala
tp4470
as(V350
VMalda
tp4471
(lp4472
(V486
VBamongola
tp4473
a(V1142
VChanchal-I
tp4474
a(V1143
VChanchal-II
tp4475
a(V1742
VEnglish Bazar
tp4476
a(V1901
VGazole
tp4477
a(V2096
VHabibpur
tp4478
a(V2155
VHarishchandrapur-I
tp4479
a(V2156
VHarishchandrapur-II
tp4480
a(V2628
VKaliachak-I
tp4481
a(V2629
VKaliachak-II
tp4482
a(V2630
VKaliachak-IIi
tp4483
a(V3680
VManikchak
tp4484
a(V4382
VOld Malda
tp4485
a(V5124
VRatua-I
tp4486
a(V5125
VRatua-II
tp4487
as(V94
VBurdwan
tp4488
(lp4489
(V182
VAndal
tp4490
a(V319
VAusgram-I
tp4491
a(V320
VAusgram-II
tp4492
a(V554
VBaraboni
tp4493
a(V816
VBhatar
tp4494
a(V1071
VBurdwan-I
tp4495
a(V1072
VBurdwan-II
tp4496
a(V1714
VDurgapur-Faridpur
tp4497
a(V1816
VGalsi-I
tp4498
a(V1817
VGalsi-II
tp4499
a(V2409
VJamalpur
tp4500
a(V2433
VJamuria
tp4501
a(V2649
VKalna-I
tp4502
a(V2650
VKalna-II
tp4503
a(V2729
VKanksa
tp4504
a(V2855
VKatwa-I
tp4505
a(V2856
VKatwa-II
tp4506
a(V2902
VKetugram-I
tp4507
a(V2903
VKetugram-II
tp4508
a(V2949
VKhandaghosh
tp4509
a(V3836
VMemari-I
tp4510
a(V3837
VMemari-II
tp4511
a(V3911
VMongolkote
tp4512
a(V3914
VMonteswar
tp4513
a(V4502
VPandabeswar
tp4514
a(V4865
VPurbasthali-I
tp4515
a(V4866
VPurbasthali-II
tp4516
a(V4942
VRaina-I
tp4517
a(V4943
VRaina-II
tp4518
a(V5094
VRaniganj
tp4519
a(V5294
VSalanpur
tp4520
as(V404
VNorth 24 Parganas
tp4521
(lp4522
(V143
VAmdanga
tp4523
a(V367
VBaduria
tp4524
a(V374
VBagdah
tp4525
a(V571
VBarasat II
tp4526
a(V572
VBarasat-I
tp4527
a(V618
VBarrackpore II
tp4528
a(V619
VBarrackpore-I
tp4529
a(V642
VBasirhat II
tp4530
a(V643
VBasirhat-I
tp4531
a(V1026
VBongaon
tp4532
a(V1482
VDeganga
tp4533
a(V1806
VGaighata
tp4534
a(V2097
VHabra-I
tp4535
a(V2098
VHabra-II
tp4536
a(V2159
VHaroa
tp4537
a(V2179
VHasnabad
tp4538
a(V2220
VHingalganj
tp4539
a(V3859
VMinakhan
tp4540
a(V4970
VRajarhat
tp4541
a(V5339
VSandeshkhali-I
tp4542
a(V5340
VSandeshkhali-II
tp4543
a(V5834
VSwarupnagar
tp4544
as(V120
VCooch-Behar
tp4545
(lp4546
(V1371
VCoochbehar-I
tp4547
a(V1372
VCoochbehar-II
tp4548
a(V1643
VDinhata-I
tp4549
a(V1644
VDinhata-II
tp4550
a(V2113
VHaldibari
tp4551
a(V3759
VMathabhanga-I
tp4552
a(V3760
VMathabhanga-II
tp4553
a(V3826
VMekhliganj
tp4554
a(V5690
VSitai
tp4555
a(V5691
VSitalkuchi
tp4556
a(V6142
VTufanganj-I
tp4557
a(V6143
VTufanganj-II
tp4558
as(V84
VBirbhum
tp4559
(lp4560
(V1019
VBolpur Sriniketan
tp4561
a(V1680
VDubrajpur
tp4562
a(V2285
VIllambazar
tp4563
a(V3019
VKhoyrasol
tp4564
a(V3318
VLabpur
tp4565
a(V3797
VMayureswar-I
tp4566
a(V3798
VMayureswar-II
tp4567
a(V3800
VMd.Bazar
tp4568
a(V4004
VMurarai-I
tp4569
a(V4005
VMurarai-II
tp4570
a(V4110
VNalhati-I
tp4571
a(V4111
VNalhati-II
tp4572
a(V4158
VNanoor
tp4573
a(V4990
VRajnagar
tp4574
a(V5069
VRampurhat-I
tp4575
a(V5070
VRampurhat-II
tp4576
a(V5277
VSainthia
tp4577
a(V5819
VSuri-I
tp4578
a(V5820
VSuri-II
tp4579
as(V374
VMurshidabad
tp4580
(lp4581
(V698
VBeldanga I
tp4582
a(V699
VBeldanga-II
tp4583
a(V724
VBerhampore
tp4584
a(V763
VBhagawangola I
tp4585
a(V764
VBhagawangola-II
tp4586
a(V806
VBharatpur-I
tp4587
a(V807
VBharatpur-II
tp4588
a(V1081
VBurwan
tp4589
a(V1660
VDomkal
tp4590
a(V1760
VFarakka
tp4591
a(V2148
VHariharpara
tp4592
a(V2390
VJalangi
tp4593
a(V2704
VKandi
tp4594
a(V2971
VKhargram
tp4595
a(V3364
VLalgola
tp4596
a(V3944
VMsd-Jiaganj
tp4597
a(V4041
VNabagram
tp4598
a(V4345
VNowda
tp4599
a(V4917
VRaghunathganj-I
tp4600
a(V4918
VRaghunathganj-II
tp4601
a(V5096
VRaninagar-I
tp4602
a(V5097
VRaninagar-II
tp4603
a(V5245
VSagardighi
tp4604
a(V5330
VSamserganj
tp4605
a(V5830
VSuti-I
tp4606
a(V5831
VSuti-II
tp4607
as(V505
VSiliguri M.P.
tp4608
(lp4609
(V2973
VKharibari
tp4610
a(V3770
VMatigara
tp4611
a(V4257
VNaxalbari
tp4612
a(V4728
VPhansidewa
tp4613
as(V633
VAlipurduar
tp4614
(lp4615
(V7065
VAlipurduar-I
tp4616
a(V7066
VAlipurduar-II
tp4617
a(V7067
VKalchini
tp4618
a(V7068
VKumargram
tp4619
a(V7069
VMadarihat
tp4620
a(V7070
VFalakata
tp4621
as(V420
VPaschim Medinipur
tp4622
(lp4623
(V961
VBinpur I
tp4624
a(V962
VBinpur II
tp4625
a(V1162
VChandrakona I
tp4626
a(V1163
VChandrakona II
tp4627
a(V1435
VDantan I
tp4628
a(V1436
VDantan II
tp4629
a(V1461
VDaspur I
tp4630
a(V1462
VDaspur II
tp4631
a(V1476
VDebra
tp4632
a(V1869
VGarbeta I
tp4633
a(V1870
VGarbeta II
tp4634
a(V1871
VGarbeta III
tp4635
a(V1926
VGhatal
tp4636
a(V2009
VGopiballavpur I
tp4637
a(V2010
VGopiballavpur II
tp4638
a(V2414
VJamboni
tp4639
a(V2498
VJhargram
tp4640
a(V2893
VKeshiary
tp4641
a(V2897
VKeshpur
tp4642
a(V2966
VKharagpur I
tp4643
a(V2967
VKharagpur II
tp4644
a(V3853
VMidnapur Sadar
tp4645
a(V3892
VMohanpur
tp4646
a(V4171
VNarayangarh
tp4647
a(V4259
VNayagram
tp4648
a(V4758
VPingla
tp4649
a(V5227
VSabong
tp4650
a(V5296
VSalboni
tp4651
a(V5378
VSankrail
tp4652
as(V133
VDarjeeling
tp4653
(lp4654
(V1442
VDar-Pulbazar
tp4655
a(V1887
VGarubathan
tp4656
a(V2524
VJorebunglow-Sukhiapokhri
tp4657
a(V2638
VKalimpong-I
tp4658
a(V2639
VKalimpong-II
tp4659
a(V3290
VKurseong
tp4660
a(V3864
VMirik
tp4661
a(V5085
VRangli Rangliot
tp4662
as(V379
VNadia
tp4663
(lp4664
(V1116
VChakdaha
tp4665
a(V1184
VChapra
tp4666
a(V2126
VHanskhali
tp4667
a(V2150
VHaringhata
tp4668
a(V2634
VKaliganj
tp4669
a(V2780
VKarimpur-I
tp4670
a(V2781
VKarimpur-II
tp4671
a(V3198
VKrishnaganj
tp4672
a(V3199
VKrishnagar-I
tp4673
a(V3200
VKrishnagar-II
tp4674
a(V4040
VNabadwip
tp4675
a(V4099
VNakashipara
tp4676
a(V5074
VRanaghat-I
tp4677
a(V5075
VRanaghat-II
tp4678
a(V5387
VSantipur
tp4679
a(V5939
VTehatta-I
tp4680
a(V5940
VTehatta-II
tp4681
as(V440
VPurba Medinipur
tp4682
(lp4683
(V773
VBhagwanpur I
tp4684
a(V774
VBhagwanpur II
tp4685
a(V1157
VChandipur
tp4686
a(V1368
VContai I
tp4687
a(V1369
VContai II
tp4688
a(V1370
VContai III
tp4689
a(V1728
VEgra I
tp4690
a(V1729
VEgra II
tp4691
a(V2112
VHaldia
tp4692
a(V2993
VKhejuri I
tp4693
a(V2994
VKhejuri II
tp4694
a(V3533
VMahisadal
tp4695
a(V3943
VMoyna
tp4696
a(V4133
VNandakumar
tp4697
a(V4144
VNandigram I
tp4698
a(V4145
VNandigram II
tp4699
a(V4527
VPanskura I
tp4700
a(V4528
VPanskura II
tp4701
a(V4599
VPatashpur I
tp4702
a(V4600
VPatashpur II
tp4703
a(V5054
VRamnagar I
tp4704
a(V5055
VRamnagar II
tp4705
a(V5261
VSahid Matangini
tp4706
a(V5829
VSutahata
tp4707
a(V5888
VTamluk
tp4708
as(V126
VDakshin-Dinajpur
tp4709
(lp4710
(V479
VBalurghat
tp4711
a(V539
VBansihari
tp4712
a(V1847
VGangarampur
tp4713
a(V2154
VHarirampur
tp4714
a(V2211
VHili
tp4715
a(V3243
VKumarganj
tp4716
a(V3303
VKushmandi
tp4717
a(V5911
VTapan
tp4718
as(V443
VPurulia
tp4719
(lp4720
(V249
VArsha
tp4721
a(V390
VBagmundi
tp4722
a(V441
VBalarampur
tp4723
a(V553
VBarabazar
tp4724
a(V1069
VBundwan
tp4725
a(V2261
VHura
tp4726
a(V2360
VJaipur
tp4727
a(V2489
VJhalda-I
tp4728
a(V2490
VJhalda-II
tp4729
a(V2811
VKashipur
tp4730
a(V3628
VManbazar-I
tp4731
a(V3629
VManbazar-II
tp4732
a(V4282
VNeturia
tp4733
a(V4540
VPara
tp4734
a(V4854
VPuncha
tp4735
a(V4877
VPurulia-I
tp4736
a(V4878
VPurulia-II
tp4737
a(V4921
VRaghunathpur-I
tp4738
a(V4922
VRaghunathpur-II
tp4739
a(V5389
VSanturi
tp4740
as(V223
VHooghly
tp4741
(lp4742
(V220
VArambag
tp4743
a(V435
VBalagarh
tp4744
a(V1158
VChanditala-I
tp4745
a(V1159
VChanditala-II
tp4746
a(V1304
VChinsura-Mogra
tp4747
a(V1558
VDhaniakhali
tp4748
a(V1969
VGoghat-I
tp4749
a(V1970
VGoghat-II
tp4750
a(V2153
VHaripal
tp4751
a(V2440
VJangipara
tp4752
a(V2944
VKhanakul-I
tp4753
a(V2945
VKhanakul-II
tp4754
a(V4514
VPandua
tp4755
a(V4794
VPolba-Dadpur
tp4756
a(V4875
VPursura
tp4757
a(V5492
VSerampore-Uttarpara
tp4758
a(V5660
VSingur
tp4759
a(V5917
VTarakeswar
tp4760
as(V245
VJalpaiguri
tp4761
(lp4762
(V1621
VDhupguri
tp4763
a(V2402
VJalpaiguri-Sadar
tp4764
a(V3579
VMal
tp4765
a(V3769
VMatiali
tp4766
a(V3795
VMaynaguri
tp4767
a(V4079
VNagrakata
tp4768
a(V4977
VRajganj
tp4769
as(V48
VBankura
tp4770
(lp4771
(V530
VBankura-I
tp4772
a(V531
VBankura-II
tp4773
a(V606
VBarjora
tp4774
a(V1194
VChatna
tp4775
a(V1841
VGangajalghati
tp4776
a(V2297
VIndpur
tp4777
a(V2300
VIndus
tp4778
a(V2476
VJaypur
tp4779
a(V2985
VKhatra-I
tp4780
a(V2986
VKhatra-II
tp4781
a(V3184
VKotulpur
tp4782
a(V3825
VMejia
tp4783
a(V4387
VOnda
tp4784
a(V4630
VPatrasayar
tp4785
a(V4950
VRaipur-I(Raipur)
tp4786
a(V4951
VRaipur-II(Sarenga)
tp4787
a(V5091
VRanibandh
tp4788
a(V5308
VSaltora
tp4789
a(V5642
VSimlapal
tp4790
a(V5722
VSonamukhi
tp4791
a(V5869
VTaldangra
tp4792
a(V6383
VVishnupur
tp4793
as(V226
VHowrah
tp4794
(lp4795
(V165
VAmta-I
tp4796
a(V166
VAmta-II
tp4797
a(V391
VBagnan-I
tp4798
a(V392
VBagnan-II
tp4799
a(V469
VBallyjagacha
tp4800
a(V1659
VDomjur
tp4801
a(V2335
VJagatballavpur
tp4802
a(V4499
VPanchla
tp4803
a(V5377
VSankrail
tp4804
a(V5599
VShyampur-I
tp4805
a(V5600
VShyampur-II
tp4806
a(V6177
VUdaynarayanpur
tp4807
a(V6195
VUluberia-I
tp4808
a(V6196
VUluberia-II
tp4809
as(V572
VUttardinajpur
tp4810
(lp4811
(V1350
VChopra
tp4812
a(V1960
VGoalpokhar-I
tp4813
a(V1961
VGoalpokhar-II
tp4814
a(V2207
VHemtabad
tp4815
a(V2313
VIslampur
tp4816
a(V2318
VItahar
tp4817
a(V2631
VKaliaganj
tp4818
a(V2759
VKarandighi
tp4819
a(V4935
VRaiganj
tp4820
ass(V3
VArunachal Pradesh
tp4821
(dp4822
(V336
VLower Dibang Valley
tp4823
(lp4824
(V1412
VDambuk
tp4825
a(V2258
VHunli Desali
tp4826
a(V5186
VRoing
tp4827
as(V337
VLower Subansiri
tp4828
(lp4829
(V4912
VRaga
tp4830
a(V6487
VZiro-I
tp4831
a(V6488
VZiro-II
tp4832
as(V538
VTawang
tp4833
(lp4834
(V3444
VLumla Zemithang
tp4835
a(V3964
VMukto Thingbu
tp4836
a(V5936
VTawang
tp4837
as(V24
VAnjaw
tp4838
(lp4839
(V2197
VHawai-Walong
tp4840
a(V2203
VHayuliang
tp4841
as(V570
VUpper Subansiri
tp4842
(lp4843
(V605
VBaririjo
tp4844
a(V1441
VDaporijo
tp4845
a(V1701
VDumporijo
tp4846
a(V1951
VGiba
tp4847
a(V4044
VNacho
tp4848
a(V5702
VSiyum
tp4849
a(V5873
VTaliha
tp4850
as(V594
VWest Siang
tp4851
(lp4852
(V97
VAlong West
tp4853
a(V98
VAlong East
tp4854
a(V636
VBasar
tp4855
a(V1907
VGensi
tp4856
a(V2871
VKaying
tp4857
a(V3409
VLikabali
tp4858
a(V3420
VLiromoba
tp4859
a(V3803
VMechuka
tp4860
a(V3912
VMonigong
tp4861
a(V5208
VRumgong
tp4862
as(V321
VKurung Kumey
tp4863
(lp4864
(V1133
VChambang
tp4865
a(V1416
VDamin
tp4866
a(V3103
VKoloriang
tp4867
a(V4364
VNyapin
tp4868
a(V4468
VPalin
tp4869
a(V5358
VSangram
tp4870
a(V5415
VSarli
tp4871
a(V5872
VTali
tp4872
as(V155
VDibang Valley
tp4873
(lp4874
(V192
VAnelieh Arzoo
tp4875
a(V195
VAnini Mipi
tp4876
a(V1749
VEtalin Malinye
tp4877
as(V418
VPapum Pare
tp4878
(lp4879
(V457
VBalijan
tp4880
a(V1655
VDoimukh
tp4881
a(V3840
VMengio
tp4882
a(V5241
VSagalee
tp4883
as(V569
VUpper Siang
tp4884
(lp4885
(V1905
VGeku
tp4886
a(V2478
VJengging
tp4887
a(V3732
VMariyang
tp4888
a(V6160
VTuting
tp4889
a(V6473
VYingkiong
tp4890
as(V549
VTirap
tp4891
(lp4892
(V2740
VKanubari
tp4893
a(V3013
VKhonsa
tp4894
a(V3402
VLazu
tp4895
a(V4130
VNamsang
tp4896
a(V4288
VNiausa
tp4897
a(V4803
VPongchau Wakka
tp4898
as(V168
VEast Kameng
tp4899
(lp4900
(V483
VBameng
tp4901
a(V489
VBana
tp4902
a(V1214
VChayangtajo
tp4903
a(V4436
VPakkekessang
tp4904
a(V4771
VPipu
tp4905
a(V5489
VSeppa
tp4906
as(V592
VWest Kameng
tp4907
(lp4908
(V1645
VDirang
tp4909
a(V2609
VKalaktang
tp4910
a(V4054
VNafra
tp4911
a(V6065
VThrizino
tp4912
as(V334
VLohit
tp4913
(lp4914
(V3406
VLekang
tp4915
a(V4129
VNamsai-Chowkham
tp4916
a(V5965
VTezu
tp4917
a(V6409
VWakro
tp4918
as(V106
VChanglang
tp4919
(lp4920
(V1033
VBordumsa-Diyun
tp4921
a(V1175
VChanglang
tp4922
a(V2910
VKhagam Miao
tp4923
a(V3006
VKhimiyang
tp4924
a(V4128
VNampong Manmao
tp4925
as(V170
VEast Siang
tp4926
(lp4927
(V3801
VMebo
tp4928
a(V4517
VPangin Boleng
tp4929
a(V4588
VPasighat
tp4930
a(V5047
VRamle Bango
tp4931
a(V5207
VRuksin
tp4932
ass(V10
VDelhi (UT)
tp4933
(dp4934
(V139
VDelhi
tp4935
(lp4936
ss(V22
VManipur
tp4937
(dp4938
(V565
VUkhrul
tp4939
(lp4940
(V1295
VChingai T.D.Block
tp4941
a(V2683
VKamjong T.D.Block
tp4942
a(V2820
VKasom Khullen T.D.Block
tp4943
a(V4745
VPhungyar T.D.Block
tp4944
a(V6191
VUkhrul T.D.Block
tp4945
as(V488
VSenapati
tp4946
(lp4947
(V2713
VKangpokpi T.D.Block
tp4948
a(V3719
VMao Maram T.D. Block
tp4949
a(V4533
VPaomata T.D.Block
tp4950
a(V4876
VPurul T.D.Block
tp4951
a(V5273
VSaikul T.D.Block
tp4952
a(V5279
VSaitu Gamphazol T.D.Block
tp4953
as(V229
VImphal East
tp4954
(lp4955
(V2287
VImphal East _II C.D.Block
tp4956
a(V2288
VImphal East-I C.D.Block
tp4957
a(V2514
VJiribam C.D.Block
tp4958
as(V536
VTamenglong
tp4959
(lp4960
(V4356
VNungba T.D.Block
tp4961
a(V5883
VTamei T.D.Block
tp4962
a(V5884
VTamenglong T.D.Block
tp4963
a(V6133
VTousem T.D.Block
tp4964
as(V85
VBishnupur
tp4965
(lp4966
(V983
VBishnupur C.D. Block
tp4967
a(V3904
VMoirang C.D.Block
tp4968
as(V117
VChurachandpur
tp4969
(lp4970
(V1363
VChurachandpur T.D.Block
tp4971
a(V2208
VHenglep T.D.Block
tp4972
a(V4560
VParbung T.D.Block
tp4973
a(V5332
VSamulamlan T.D.Block
tp4974
a(V5655
VSinghat T.D.Block
tp4975
a(V5993
VThanlon T.D.Block
tp4976
as(V230
VImphal West
tp4977
(lp4978
(V2289
VImphal West-I C.D.Block
tp4979
a(V2290
VImphal West-II C.D.Block
tp4980
as(V104
VChandel
tp4981
(lp4982
(V1120
VChakpikarong T.D.Block
tp4983
a(V1152
VChandel T.D.Block
tp4984
a(V3460
VMachi T.D.Block
tp4985
a(V5956
VTengnoupal T.D.Block
tp4986
as(V545
VThoubal
tp4987
(lp4988
(V2592
VKakching C.D.Block
tp4989
a(V6061
VThoubal C.D.Block
tp4990
ass(V7
VChhattisgarh
tp4991
(dp4992
(V163
VDurg
tp4993
(lp4994
(V1546
VDhamdha
tp4995
a(V1713
VDurg
tp4996
a(V4595
VPatan
tp4997
as(V626
VSurajpur
tp4998
(lp4999
(V7012
VSurajpur
tp5000
a(V7013
VPremnagar
tp5001
a(V7014
VRamanujnagar
tp5002
a(V7015
VOdagi
tp5003
a(V7016
VBhaiyathan
tp5004
a(V7017
VPratappur
tp5005
as(V251
VJashpur
tp5006
(lp5007
(V386
VBagicha
tp5008
a(V1691
VDuldula
tp5009
a(V1765
VFarsabahar
tp5010
a(V2451
VJashpur
tp5011
a(V2735
VKansabel
tp5012
a(V3267
VKunkuri
tp5013
a(V3700
VManora
tp5014
a(V4606
VPathalgaon
tp5015
as(V390
VNarayanpur
tp5016
(lp5017
(V4179
VNarayanpur
tp5018
a(V4392
VOrchha
tp5019
as(V452
VRajnandgaon
tp5020
(lp5021
(V1269
VChhuikhadan
tp5022
a(V1271
VChhuria
tp5023
a(V1359
VChowki
tp5024
a(V1664
VDongargarh
tp5025
a(V1665
VDongergaon
tp5026
a(V2917
VKhairagarh
tp5027
a(V3701
VManpur
tp5028
a(V3899
VMohla
tp5029
a(V4993
VRajnandgaon
tp5030
as(V145
VDhamtari
tp5031
(lp5032
(V1550
VDhamtari
tp5033
a(V3294
VKurud
tp5034
a(V3505
VMagarlod
tp5035
a(V4080
VNagri
tp5036
as(V621
VBemetra
tp5037
(lp5038
(V6986
VBemetara
tp5039
a(V6987
VBerla
tp5040
a(V6988
VNawagarh
tp5041
a(V6989
VSaja
tp5042
as(V627
VKondagaon
tp5043
(lp5044
(V7019
VBaderajpur
tp5045
a(V7020
VKeshkal
tp5046
a(V7021
VPharasgaon
tp5047
a(V7024
VKondagaon
tp5048
a(V7025
VMakdi
tp5049
as(V620
VSukma
tp5050
(lp5051
(V6982
VChhindgarh
tp5052
a(V6983
VSukma
tp5053
a(V7018
VKonta
tp5054
as(V448
VRaipur
tp5055
(lp5056
(V4
VAbhanpur
tp5057
a(V221
VArang
tp5058
a(V1596
VDharsiwa
tp5059
a(V6085
VTilda
tp5060
as(V622
VBalod
tp5061
(lp5062
(V6990
VBalod
tp5063
a(V6991
VDondi
tp5064
a(V6992
VDondi Lohara
tp5065
a(V6993
VGunderdahi
tp5066
a(V6994
VGurur
tp5067
as(V288
VKawardha
tp5068
(lp5069
(V1004
VBodla
tp5070
a(V2869
VKawardha
tp5071
a(V4507
VPandariya
tp5072
a(V5254
VSahaspur/Lohara
tp5073
as(V624
VGariaband
tp5074
(lp5075
(V7001
VChhura
tp5076
a(V7002
VDeobhog
tp5077
a(V7003
VGariaband
tp5078
a(V7004
VMainpur
tp5079
a(V7005
VRajim
tp5080
as(V310
VKorba
tp5081
(lp5082
(V2796
VKartala
tp5083
a(V2827
VKatghora
tp5084
a(V3135
VKorba
tp5085
a(V4464
VPali
tp5086
a(V4784
VPodiuproda
tp5087
as(V346
VMahasamund
tp5088
(lp5089
(V373
VBagbahara
tp5090
a(V647
VBasna
tp5091
a(V3523
VMahasamund
tp5092
a(V4778
VPithora
tp5093
a(V5398
VSaraipali
tp5094
as(V131
VDantewada
tp5095
(lp5096
(V1437
VDantewada
tp5097
a(V1902
VGeedam
tp5098
a(V2826
VKatekalyan
tp5099
a(V3213
VKuakonda
tp5100
as(V625
VBalrampur
tp5101
(lp5102
(V7006
VKusmi
tp5103
a(V7007
VShankargarh
tp5104
a(V7008
VRajpur
tp5105
a(V7009
VBalrampur
tp5106
a(V7010
VRamchandarpur
tp5107
a(V7011
VWadrafnagar
tp5108
as(V79
VBijapur
tp5109
(lp5110
(V781
VBhairamgarh
tp5111
a(V881
VBhopalpatnam
tp5112
a(V925
VBijapur
tp5113
a(V6236
VUsoor
tp5114
as(V250
VJangir-Champa
tp5115
(lp5116
(V53
VAkaltara
tp5117
a(V472
VBaloda
tp5118
a(V484
VBamhnidih
tp5119
a(V1381
VDabhara
tp5120
a(V2353
VJaijaipur
tp5121
a(V3599
VMalkharada
tp5122
a(V4249
VNawagarh
tp5123
a(V4486
VPamgarh
tp5124
a(V5293
VSakti
tp5125
as(V82
VBilaspur
tp5126
(lp5127
(V948
VBilha
tp5128
a(V2023
VGourella
tp5129
a(V3150
VKota
tp5130
a(V3723
VMarawahi
tp5131
a(V3755
VMasturi
tp5132
a(V4692
VPendra
tp5133
a(V5858
VTakhatpur
tp5134
as(V311
VKoria
tp5135
(lp5136
(V415
VBaikunthpur
tp5137
a(V805
VBharatpur
tp5138
a(V2907
VKhadgawan
tp5139
a(V3659
VManedragarh
tp5140
a(V5735
VSonhat
tp5141
as(V623
VBalodabazar
tp5142
(lp5143
(V6995
VBalodabazar
tp5144
a(V6996
VBhatapara
tp5145
a(V6997
VBilaigarh
tp5146
a(V6998
VKasdol
tp5147
a(V6999
VPallari
tp5148
a(V7000
VSimga
tp5149
as(V58
VBastar
tp5150
(lp5151
(V430
VBakawand
tp5152
a(V655
VBastanar
tp5153
a(V656
VBastar
tp5154
a(V1445
VDarbha
tp5155
a(V2338
VJagdalpur
tp5156
a(V3426
VLohandiguda
tp5157
a(V6125
VTokapal
tp5158
as(V447
VRaigarh
tp5159
(lp5160
(V565
VBaramkela
tp5161
a(V1572
VDharamjaigarh
tp5162
a(V1921
VGharghoda
tp5163
a(V2980
VKharsia
tp5164
a(V3333
VLailunga
tp5165
a(V4885
VPussore
tp5166
a(V4936
VRaigarh
tp5167
a(V5404
VSarangarh
tp5168
a(V5889
VTamnar
tp5169
as(V628
VMungeli
tp5170
(lp5171
(V7022
VMungeli
tp5172
a(V7023
VPathariya
tp5173
a(V7026
VLormi
tp5174
as(V269
VKanker
tp5175
(lp5176
(V209
VAntagarh
tp5177
a(V800
VBhanupratappur
tp5178
a(V1185
VCharama
tp5179
a(V1717
VDurgukondal
tp5180
a(V2726
VKanker
tp5181
a(V3076
VKoelibeda
tp5182
a(V4184
VNarharpur
tp5183
as(V535
VSurguja
tp5184
(lp5185
(V140
VAmbikapur
tp5186
a(V661
VBatauli
tp5187
a(V3339
VLakhanpur
tp5188
a(V3446
VLundra
tp5189
a(V3553
VMainpat
tp5190
a(V5693
VSitapur
tp5191
a(V6169
VUdaipur
tp5192
ass(V21
VMaharashtra
tp5193
(dp5194
(V4
VAhmednagar
tp5195
(lp5196
(V64
VAkole
tp5197
a(V2420
VJamkhed
tp5198
a(V2784
VKarjat
tp5199
a(V3126
VKopargaon
tp5200
a(V4060
VNagar
tp5201
a(V4285
VNewasa
tp5202
a(V4571
VParner
tp5203
a(V4610
VPathardi
tp5204
a(V4924
VRahata
tp5205
a(V4930
VRahuri
tp5206
a(V5347
VSangamner
tp5207
a(V5562
VShevgaon
tp5208
a(V5594
VShrigonda
tp5209
a(V5595
VShrirampur
tp5210
as(V481
VSangali
tp5211
(lp5212
(V297
VAtpadi
tp5213
a(V2459
VJath
tp5214
a(V2863
VKavathemahankal
tp5215
a(V2948
VKhanapur
tp5216
a(V3862
VMiraj
tp5217
a(V4482
VPalus
tp5218
a(V5572
VShirala
tp5219
a(V5934
VTasgaon
tp5220
a(V6412
VWalwa
tp5221
as(V446
VRaigad
tp5222
(lp5223
(V84
VAlibag
tp5224
a(V2783
VKarjat
tp5225
a(V2930
VKhalapur
tp5226
a(V3512
VMahad
tp5227
a(V3667
VMangaon
tp5228
a(V3849
VMhasala
tp5229
a(V4015
VMurud
tp5230
a(V4530
VPanvel
tp5231
a(V4687
VPen
tp5232
a(V4790
VPoladpur
tp5233
a(V5179
VRoha
tp5234
a(V5596
VShriwardhan
tp5235
a(V5779
VSudhagad
tp5236
a(V5860
VTala
tp5237
a(V6228
VUran
tp5238
as(V382
VNagpur
tp5239
(lp5240
(V868
VBhiwapur
tp5241
a(V2223
VHingna
tp5242
a(V2648
VKalmeshwar
tp5243
a(V2686
VKamptee
tp5244
a(V2841
VKatol
tp5245
a(V3226
VKuhi
tp5246
a(V3941
VMouda
tp5247
a(V4076
VNagpur
tp5248
a(V4191
VNarkhed
tp5249
a(V4576
VParseoni
tp5250
a(V5073
VRamtek
tp5251
a(V5391
VSaoner
tp5252
a(V6207
VUmred
tp5253
as(V419
VParbhani
tp5254
(lp5255
(V1842
VGangakhed
tp5256
a(V2510
VJintur
tp5257
a(V3718
VManwath
tp5258
a(V4449
VPalam
tp5259
a(V4559
VParbhani
tp5260
a(V4617
VPathri
tp5261
a(V4871
VPurna
tp5262
a(V5275
VSailu
tp5263
a(V5738
VSonpeth
tp5264
as(V31
VAurangabad
tp5265
(lp5266
(V315
VAurangabad
tp5267
a(V1845
VGangapur
tp5268
a(V2730
VKannad
tp5269
a(V3021
VKhuldabad
tp5270
a(V4431
VPaithan
tp5271
a(V5632
VSillod
tp5272
a(V5755
VSoyagaon
tp5273
a(V6260
VVaijapur
tp5274
as(V16
VAmrawati
tp5275
(lp5276
(V9
VAchalpur
tp5277
a(V160
VAmrawati
tp5278
a(V196
VAnjangaon
tp5279
a(V819
VBhatkuli
tp5280
a(V1169
VChandur Bazar
tp5281
a(V1170
VChandur Railway
tp5282
a(V1279
VChikhaldara
tp5283
a(V1454
VDaryapur
tp5284
a(V1544
VDhamangaon Railway
tp5285
a(V1595
VDharni
tp5286
a(V3929
VMorshi
tp5287
a(V4140
VNandgaon Khandeshwar
tp5288
a(V5961
VTeosa
tp5289
a(V6425
VWarud
tp5290
as(V393
VNashik
tp5291
(lp5292
(V388
VBaglan
tp5293
a(V1173
VChandwad
tp5294
a(V1502
VDeola
tp5295
a(V1640
VDindori
tp5296
a(V2281
VIgatpuri
tp5297
a(V2660
VKalwan
tp5298
a(V3587
VMalegaon
tp5299
a(V4139
VNandgaon
tp5300
a(V4214
VNashik
tp5301
a(V4313
VNiphad
tp5302
a(V4719
VPeth
tp5303
a(V5662
VSinner
tp5304
a(V5818
VSurgana
tp5305
a(V6136
VTrimbkeshwar
tp5306
a(V6465
VYeola
tp5307
as(V187
VGadchiroli
tp5308
(lp5309
(V36
VAheri
tp5310
a(V241
VArmori
tp5311
a(V789
VBhamragad
tp5312
a(V1135
VChamorshi
tp5313
a(V1561
VDhanora
tp5314
a(V1750
VEtapalli
tp5315
a(V1794
VGadchiroli
tp5316
a(V3136
VKorchi
tp5317
a(V3285
VKurkheda
tp5318
a(V3973
VMulchera
tp5319
a(V5676
VSironcha
tp5320
a(V6402
VWadsa
tp5321
as(V540
VThane
tp5322
(lp5323
(V131
VAmbarnath
tp5324
a(V132
VAmbarnath
tp5325
a(V866
VBhiwandi
tp5326
a(V1397
VDahanu
tp5327
a(V2470
VJawhar
tp5328
a(V2661
VKalyan
tp5329
a(V3906
VMokhada
tp5330
a(V4007
VMurbad
tp5331
a(V4459
VPalghar
tp5332
a(V5503
VShahapur
tp5333
a(V5865
VTalasari
tp5334
a(V5990
VThane
tp5335
a(V6292
VVasai
tp5336
a(V6366
VVikramgad
tp5337
a(V6397
VWada
tp5338
as(V484
VSatara
tp5339
(lp5340
(V2444
VJaoli
tp5341
a(V2751
VKarad
tp5342
a(V2950
VKhandala
tp5343
a(V2983
VKhatav
tp5344
a(V3137
VKoregaon
tp5345
a(V3509
VMahableshwar
tp5346
a(V3617
VMan
tp5347
a(V4591
VPatan
tp5348
a(V4726
VPhaltan
tp5349
a(V5432
VSatara
tp5350
a(V6407
VWai
tp5351
as(V68
VBhandara
tp5352
(lp5353
(V790
VBhandara.
tp5354
a(V3336
VLakhandur
tp5355
a(V3337
VLakhani
tp5356
a(V3880
VMohadi
tp5357
a(V4642
VPauni
tp5358
a(V5288
VSakoli
tp5359
a(V6150
VTumsar
tp5360
as(V243
VJalna
tp5361
(lp5362
(V126
VAmbad
tp5363
a(V363
VBadnapur
tp5364
a(V876
VBhokardan
tp5365
a(V1918
VGhanswangi
tp5366
a(V2328
VJafrabad
tp5367
a(V2400
VJalna
tp5368
a(V3710
VMantha
tp5369
a(V4579
VPartur
tp5370
as(V586
VWashim
tp5371
(lp5372
(V2760
VKaranja
tp5373
a(V3586
VMalegaon
tp5374
a(V3673
VMangrulpir
tp5375
a(V3913
VMonora
tp5376
a(V5170
VRishod
tp5377
a(V6428
VWashim
tp5378
as(V600
VYavatmal
tp5379
(lp5380
(V244
VArni
tp5381
a(V345
VBabulgaon
tp5382
a(V1453
VDarwha
tp5383
a(V1632
VDigras
tp5384
a(V1928
VGhatanji
tp5385
a(V2610
VKalamb
tp5386
a(V2881
VKelapur
tp5387
a(V3515
VMahagaon
tp5388
a(V3725
VMaregaon
tp5389
a(V4279
VNer
tp5390
a(V4882
VPusad
tp5391
a(V5150
VRelagaon
tp5392
a(V6202
VUmarkhed
tp5393
a(V6415
VWani
tp5394
a(V6466
VYeotmal
tp5395
a(V6480
VZarijamni
tp5396
as(V306
VKolhapur
tp5397
(lp5398
(V48
VAjara
tp5399
a(V888
VBhudargad
tp5400
a(V1145
VChandagad
tp5401
a(V1797
VGadhinglaj
tp5402
a(V1801
VGaganbavada
tp5403
a(V2193
VHatkanangle
tp5404
a(V2575
VKagal
tp5405
a(V2801
VKarveer
tp5406
a(V4518
VPanhala
tp5407
a(V4907
VRadhanagri
tp5408
a(V5523
VShahuwadi
tp5409
a(V5574
VShirol
tp5410
as(V409
VOsmanabad
tp5411
(lp5412
(V877
VBhoom
tp5413
a(V2644
VKallam
tp5414
a(V3427
VLohara
tp5415
a(V4386
VOmerga
tp5416
a(V4397
VOsmanabad
tp5417
a(V4548
VParanda
tp5418
a(V6147
VTuljapur
tp5419
a(V6427
VWashi
tp5420
as(V105
VChandrapur
tp5421
(lp5422
(V760
VBhadravati
tp5423
a(V1046
VBrahmapuri
tp5424
a(V1164
VChandrapur
tp5425
a(V1291
VChimur
tp5426
a(V1997
VGondpipri
tp5427
a(V3141
VKorpana
tp5428
a(V3966
VMul
tp5429
a(V4071
VNagbhid
tp5430
a(V5008
VRajura
tp5431
a(V5457
VSawali
tp5432
a(V5570
VShindewahi
tp5433
a(V6423
VWarora
tp5434
as(V439
VPune
tp5435
(lp5436
(V135
VAmbegaon
tp5437
a(V563
VBaramati
tp5438
a(V883
VBhor
tp5439
a(V1675
VDound
tp5440
a(V2195
VHaveli
tp5441
a(V2291
VIndapur
tp5442
a(V2544
VJunnar
tp5443
a(V2990
VKhed
tp5444
a(V3779
VMaval
tp5445
a(V3976
VMulshi
tp5446
a(V4863
VPurandhar
tp5447
a(V5576
VShirur
tp5448
a(V6315
VVelha
tp5449
as(V330
VLatur
tp5450
(lp5451
(V38
VAhmadpur
tp5452
a(V318
VAusa
tp5453
a(V1125
VChakur
tp5454
a(V1505
VDeoni
tp5455
a(V2399
VJalkot
tp5456
a(V3390
VLatur
tp5457
a(V4303
VNilanga
tp5458
a(V5152
VRenapur
tp5459
a(V5578
VShirur Anantpal
tp5460
a(V6178
VUdgir
tp5461
as(V200
VGondia
tp5462
(lp5463
(V147
VAmgaon
tp5464
a(V239
VArjuni/ Morgaon
tp5465
a(V1507
VDeori
tp5466
a(V1994
VGondia
tp5467
a(V2014
VGoregaon
tp5468
a(V5229
VSadak/ Arjuni
tp5469
a(V5299
VSalekasa
tp5470
a(V6096
VTirora
tp5471
as(V388
VNanded
tp5472
(lp5473
(V231
VArdhapur
tp5474
a(V875
VBhokar
tp5475
a(V951
VBiloli
tp5476
a(V1483
VDeglur
tp5477
a(V1586
VDharmabad
tp5478
a(V2100
VHadgaon
tp5479
a(V2215
VHimayatnagar
tp5480
a(V2702
VKandhar
tp5481
a(V3040
VKinwat
tp5482
a(V3424
VLoha
tp5483
a(V3546
VMahur
tp5484
a(V3953
VMudkhed
tp5485
a(V3962
VMukhed
tp5486
a(V4090
VNaigaon
tp5487
a(V4137
VNanded
tp5488
a(V6210
VUmri
tp5489
as(V154
VDhule
tp5490
(lp5491
(V1619
VDhule
tp5492
a(V5292
VSakri
tp5493
a(V5571
VShindkheda
tp5494
a(V5575
VShirpur
tp5495
as(V242
VJalgaon
tp5496
(lp5497
(V107
VAmalner
tp5498
a(V753
VBhadgaon
tp5499
a(V895
VBhusawal
tp5500
a(V1127
VChalisgaon
tp5501
a(V1348
VChopda
tp5502
a(V1744
VErandol
tp5503
a(V2396
VJalgaon
tp5504
a(V2424
VJamner
tp5505
a(V3963
VMuktainagar
tp5506
a(V4409
VPachora
tp5507
a(V4572
VParola
tp5508
a(V5126
VRaver
tp5509
a(V6449
VYawal
tp5510
as(V585
VWardha
tp5511
(lp5512
(V251
VArvi
tp5513
a(V263
VAshti
tp5514
a(V1503
VDeoli
tp5515
a(V2221
VHinganghat
tp5516
a(V2761
VKaranja
tp5517
a(V5331
VSamudrapur
tp5518
a(V5473
VSeloo
tp5519
a(V6419
VWardha
tp5520
as(V517
VSolapur
tp5521
(lp5522
(V60
VAkkalkot
tp5523
a(V621
VBarshi
tp5524
a(V2788
VKarmala
tp5525
a(V3478
VMadha
tp5526
a(V3609
VMalshiras
tp5527
a(V3665
VMangalwedha
tp5528
a(V3900
VMohol
tp5529
a(V4343
VNorth Solapur
tp5530
a(V4511
VPandharpur
tp5531
a(V5356
VSangola
tp5532
a(V5754
VSouth Solapur
tp5533
as(V61
VBeed
tp5534
(lp5535
(V136
VAmbejogai
tp5536
a(V262
VAshti
tp5537
a(V681
VBeed
tp5538
a(V1597
VDharur
tp5539
a(V1908
VGeorai
tp5540
a(V2581
VKaij
tp5541
a(V3559
VMajalgaon
tp5542
a(V4570
VParli
tp5543
a(V4626
VPatoda
tp5544
a(V5577
VShirur (Kasar)
tp5545
a(V6403
VWadwani
tp5546
as(V461
VRatnagiri
tp5547
(lp5548
(V1314
VChiplun
tp5549
a(V1440
VDapoli
tp5550
a(V2056
VGuhagar
tp5551
a(V2989
VKhed
tp5552
a(V3376
VLanja
tp5553
a(V3638
VMandangad
tp5554
a(V4969
VRajapur
tp5555
a(V5120
VRatnagiri
tp5556
a(V5346
VSangameshwar
tp5557
as(V92
VBuldhana
tp5558
(lp5559
(V1066
VBuldhana
tp5560
a(V1280
VChikhali
tp5561
a(V1521
VDeulgaon Raja
tp5562
a(V2397
VJalgaon Jamod
tp5563
a(V2939
VKhamgaon
tp5564
a(V3434
VLonar
tp5565
a(V3598
VMalkapur
tp5566
a(V3819
VMehkar
tp5567
a(V3933
VMotala
tp5568
a(V4149
VNandura
tp5569
a(V5359
VSangrampur
tp5570
a(V5548
VShegaon
tp5571
a(V5650
VSindhkhed Raja
tp5572
a(V5948
VTelhara
tp5573
as(V389
VNandurbar
tp5574
(lp5575
(V61
VAkkalkuwa
tp5576
a(V67
VAkrani
tp5577
a(V4150
VNandurbar
tp5578
a(V4255
VNawapur
tp5579
a(V5502
VShahada
tp5580
a(V5878
VTaloda
tp5581
as(V221
VHingoli
tp5582
(lp5583
(V309
VAundha Nagn
tp5584
a(V646
VBasmath
tp5585
a(V2224
VHingoli
tp5586
a(V2611
VKalamnuri
tp5587
a(V5481
VSengaon
tp5588
as(V507
VSindhudurg
tp5589
(lp5590
(V1530
VDevgad
tp5591
a(V1652
VDodamarg
tp5592
a(V2724
VKankavli
tp5593
a(V3221
VKudal
tp5594
a(V3612
VMalvan
tp5595
a(V5452
VSavantwadi
tp5596
a(V6259
VVaibhavwadi
tp5597
a(V6334
VVengurla
tp5598
as(V7
VAkola
tp5599
(lp5600
(V62
VAkola
tp5601
a(V65
VAkot
tp5602
a(V440
VBalapur
tp5603
a(V622
VBarshitakli
tp5604
a(V4014
VMurtizapur
tp5605
a(V4640
VPatur
tp5606
a(V5947
VTelhara
tp5607
ass(V28
VPunjab
tp5608
(dp5609
(V615
VPathankot
tp5610
(lp5611
(V6956
VBamial
tp5612
a(V6957
VDhar Kalan
tp5613
a(V6958
VNarot Jaimal Singh
tp5614
a(V6959
VPathankot
tp5615
a(V6960
VSujanpur
tp5616
as(V468
VRopar
tp5617
(lp5618
(V174
VAnandpur Sahib
tp5619
a(V1134
VChamkaur Sahib
tp5620
a(V3924
VMorinda
tp5621
a(V4359
VNurpur Bedi
tp5622
a(V5197
VRoopnagar
tp5623
as(V178
VFaridkot
tp5624
(lp5625
(V1762
VFaridkot
tp5626
a(V3174
VKotkapura
tp5627
as(V339
VLudhiana
tp5628
(lp5629
(V1486
VDehlon
tp5630
a(V1666
VDoraha
tp5631
a(V2347
VJagraon
tp5632
a(V2957
VKhanna
tp5633
a(V3441
VLudhiana I
tp5634
a(V3442
VLudhiana II
tp5635
a(V3458
VMachhiwara
tp5636
a(V4435
VPakhowal
tp5637
a(V5328
VSamrala
tp5638
a(V5611
VSidhwan Bet
tp5639
a(V5780
VSudhar
tp5640
as(V181
VFatehgarh Sahib
tp5641
(lp5642
(V152
VAmloh
tp5643
a(V653
VBassi Pathana
tp5644
a(V2935
VKhamano
tp5645
a(V2996
VKhera
tp5646
a(V5670
VSirhind
tp5647
as(V616
VTarn Taran
tp5648
(lp5649
(V6961
VBhikhiwind
tp5650
a(V6962
VChohla Sahib
tp5651
a(V6963
VGandiwind
tp5652
a(V6964
VKhadoor Sahib
tp5653
a(V6965
VNaushera Pannuan
tp5654
a(V6966
VPatti
tp5655
a(V6967
VTarn Taran
tp5656
a(V6968
VValtoha
tp5657
as(V225
VHoshiarpur
tp5658
(lp5659
(V892
VBhunga
tp5660
a(V1464
VDasuya
tp5661
a(V1876
VGarhshankar
tp5662
a(V2107
VHajipur
tp5663
a(V2245
VHoshiarpur-1
tp5664
a(V2246
VHoshiarpur-2
tp5665
a(V3532
VMahilpur
tp5666
a(V3960
VMukerian
tp5667
a(V5881
VTalwara
tp5668
a(V5893
VTanda
tp5669
as(V183
VFerozepur
tp5670
(lp5671
(V1783
VFerozepur
tp5672
a(V1911
VGhall Khurd
tp5673
a(V2087
VGuruharsahai
tp5674
a(V3574
VMakhu
tp5675
a(V3615
VMamdot
tp5676
a(V6484
VZira
tp5677
as(V614
VMohali
tp5678
(lp5679
(V6953
VMajri
tp5680
a(V6954
VKharar
tp5681
a(V6955
VDera Bassi
tp5682
as(V372
VMukatsar
tp5683
(lp5684
(V3148
VKot Bhai At Gidderbaha
tp5685
a(V3370
VLambi
tp5686
a(V3606
VMalout
tp5687
a(V3965
VMuktsar
tp5688
as(V60
VBathinda
tp5689
(lp5690
(V664
VBathinda
tp5691
a(V766
VBhagta
tp5692
a(V3777
VMaur
tp5693
a(V4221
VNathana
tp5694
a(V4740
VPhul
tp5695
a(V5067
VRampura
tp5696
a(V5351
VSangat
tp5697
a(V5880
VTalwandi Sabo
tp5698
as(V423
VPatiala
tp5699
(lp5700
(V891
VBhunerheri
tp5701
a(V1913
VGhanour
tp5702
a(V4042
VNabha
tp5703
a(V4620
VPatiala
tp5704
a(V4628
VPatran
tp5705
a(V5002
VRajpura
tp5706
a(V5315
VSamana
tp5707
a(V5379
VSanour
tp5708
as(V613
VFazilka
tp5709
(lp5710
(V6949
VAbohar
tp5711
a(V6950
VFazilka
tp5712
a(V6951
VKhuian Sarwar
tp5713
a(V6952
VJalalabad
tp5714
as(V612
VBarnala
tp5715
(lp5716
(V6946
VBarnala
tp5717
a(V6947
VMehal Kalan
tp5718
a(V6948
VSehna
tp5719
as(V18
VAmritsar
tp5720
(lp5721
(V51
VAjnala
tp5722
a(V1341
VChogawan
tp5723
a(V2166
VHarsha Chhina
tp5724
a(V2437
VJandiala
tp5725
a(V3566
VMajitha
tp5726
a(V5138
VRayya
tp5727
a(V5931
VTarsika
tp5728
a(V6347
VVerka
tp5729
as(V397
VNawashahar
tp5730
(lp5731
(V310
VAur
tp5732
a(V434
VBalachaur
tp5733
a(V502
VBanga
tp5734
a(V4254
VNawanshahr
tp5735
a(V5420
VSaroya
tp5736
as(V357
VMansa
tp5737
(lp5738
(V847
VBhikhi
tp5739
a(V1059
VBudhlada
tp5740
a(V2506
VJhunir
tp5741
a(V3704
VMansa
tp5742
a(V5413
VSardulgarh
tp5743
as(V240
VJalandhar
tp5744
(lp5745
(V16
VAdampur
tp5746
a(V872
VBhogpur
tp5747
a(V2388
VJalandhar East
tp5748
a(V2389
VJalandhar West
tp5749
a(V3432
VLohian
tp5750
a(V4102
VNakodar
tp5751
a(V4357
VNurmehal
tp5752
a(V4733
VPhillaur
tp5753
a(V5217
VRurka
tp5754
a(V5512
VShahkot
tp5755
as(V207
VGurdaspur
tp5756
(lp5757
(V660
VBatala
tp5758
a(V1513
VDera Baba Nanak
tp5759
a(V1585
VDhariwal
tp5760
a(V1637
VDinanagar
tp5761
a(V1770
VFatehgarh Churian
tp5762
a(V2079
VGurdaspur
tp5763
a(V2580
VKahnuwan
tp5764
a(V2615
VKalanour
tp5765
a(V4895
VQadian
tp5766
a(V5593
VShri Har Gobindpur
tp5767
as(V275
VKapurthala
tp5768
(lp5769
(V1609
VDhilwan
tp5770
a(V2749
VKapurthala
tp5771
a(V4045
VNadala
tp5772
a(V4724
VPhagwara
tp5773
a(V5798
VSultanpur
tp5774
as(V365
VMoga
tp5775
(lp5776
(V379
VBaghapurana
tp5777
a(V3149
VKot Ise Khan
tp5778
a(V3876
VMoga I
tp5779
a(V3877
VMoga II
tp5780
a(V4298
VNihal singh wala
tp5781
as(V482
VSangrur
tp5782
(lp5783
(V113
VAmargarh
tp5784
a(V183
VAndana
tp5785
a(V832
VBhawanigarh
tp5786
a(V1622
VDhuri
tp5787
a(V3405
VLehragaga
tp5788
a(V3588
VMalerkotla-I
tp5789
a(V3589
VMalerkotla-II
tp5790
a(V5363
VSangrur
tp5791
a(V5561
VSherpur
tp5792
a(V5806
VSunam
tp5793
ass(V29
VRajasthan
tp5794
(dp5795
(V560
VUdaipur
tp5796
(lp5797
(V583
VBargaon
tp5798
a(V859
VBhindar
tp5799
a(V1583
VDhariawad
tp5800
a(V1959
VGirwa
tp5801
a(V1971
VGogunda
tp5802
a(V2485
VJhadol
tp5803
a(V3001
VKherwara
tp5804
a(V3179
VKotra
tp5805
a(V3383
VLasadiya
tp5806
a(V3781
VMavli
tp5807
a(V5309
VSalumbar
tp5808
a(V5394
VSarada
tp5809
as(V556
VTonk
tp5810
(lp5811
(V1504
VDeoli
tp5812
a(V3608
VMalpura
tp5813
a(V4322
VNiwai
tp5814
a(V6122
VTodaraisingh
tp5815
a(V6127
VTonk
tp5816
a(V6221
VUniara
tp5817
as(V276
VKarauli
tp5818
(lp5819
(V2216
VHindaun
tp5820
a(V2768
VKarauli
tp5821
a(V4052
VNadoti
tp5822
a(V5393
VSapotra
tp5823
a(V6121
VTodabhim
tp5824
as(V6
VAjmer
tp5825
(lp5826
(V216
VArain
tp5827
a(V857
VBhinay
tp5828
a(V2468
VJawaja
tp5829
a(V2878
VKekri
tp5830
a(V3754
VMasooda
tp5831
a(V4683
VPeesangan
tp5832
a(V5633
VSilora (Kishangarh)
tp5833
a(V5763
VSrinagar
tp5834
as(V115
VChittaurgarh
tp5835
(lp5836
(V246
VArnod
tp5837
a(V602
VBari Sadri
tp5838
a(V684
VBegun
tp5839
a(V752
VBhadesar
tp5840
a(V779
VBhainsrorgarh
tp5841
a(V882
VBhopalsagar
tp5842
a(V1267
VChhoti Sadri
tp5843
a(V1332
VChittaurgarh
tp5844
a(V1710
VDungla
tp5845
a(V1857
VGangrar
tp5846
a(V2743
VKapasan
tp5847
a(V4308
VNimbahera
tp5848
a(V4827
VPratapgarh
tp5849
a(V5111
VRashmi
tp5850
as(V255
VJhalawar
tp5851
(lp5852
(V429
VBakani
tp5853
a(V1686
VDug
tp5854
a(V2492
VJhalrapatan
tp5855
a(V2958
VKhanpur
tp5856
a(V3696
VManohar Thana
tp5857
a(V4772
VPirawa (Sunel)
tp5858
as(V72
VBhilwara
tp5859
(lp5860
(V266
VAsind
tp5861
a(V501
VBanera
tp5862
a(V2262
VHurda
tp5863
a(V2352
VJahazpur
tp5864
a(V3180
VKotri
tp5865
a(V3635
VMandal
tp5866
a(V3636
VMandalgarh
tp5867
a(V4945
VRaipur
tp5868
a(V5251
VSahara
tp5869
a(V5520
VShahpura
tp5870
a(V5833
VSuwana
tp5871
as(V69
VBharatpur
tp5872
(lp5873
(V673
VBayana
tp5874
a(V1478
VDeeg
tp5875
a(V2674
VKaman
tp5876
a(V3250
VKumher
tp5877
a(V4047
VNadbai
tp5878
a(V4063
VNagar (Nagar Pahari)
tp5879
a(V5214
VRupbas
tp5880
a(V5498
VSewar
tp5881
a(V6436
VWeir
tp5882
as(V52
VBaran
tp5883
(lp5884
(V208
VAnta
tp5885
a(V302
VAtru
tp5886
a(V567
VBaran
tp5887
a(V1249
VChhabra
tp5888
a(V1264
VChhipabarod
tp5889
a(V3048
VKishanganj
tp5890
a(V5505
VShahbad
tp5891
as(V238
VJaisalmer
tp5892
(lp5893
(V2362
VJaisalmer
tp5894
a(V5311
VSam
tp5895
a(V5376
VSankra (Pokaran)
tp5896
as(V510
VSirohi
tp5897
(lp5898
(V6
VAbu Road
tp5899
a(V4757
VPindwara
tp5900
a(V5159
VReodar
tp5901
a(V5555
VSheoganj
tp5902
a(V5675
VSirohi
tp5903
as(V150
VDhaulpur
tp5904
(lp5905
(V600
VBari
tp5906
a(V639
VBaseri
tp5907
a(V1604
VDhaulpur
tp5908
a(V4960
VRajakhera
tp5909
as(V118
VChuru
tp5910
(lp5911
(V1365
VChuru
tp5912
a(V4981
VRajgarh
tp5913
a(V5116
VRatangarh
tp5914
a(V5411
VSardarshahar
tp5915
a(V5784
VSujangarh
tp5916
a(V5919
VTaranagar
tp5917
as(V435
VPratapgarh
tp5918
(lp5919
(V247
VArnod
tp5920
a(V1266
VChhoti Sadri
tp5921
a(V1584
VDhariawad
tp5922
a(V4682
VPeepal Khoont
tp5923
a(V4826
VPratapgarh
tp5924
as(V244
VJalor
tp5925
(lp5926
(V40
VAhore
tp5927
a(V860
VBhinmal
tp5928
a(V1322
VChitalwana
tp5929
a(V2401
VJalor
tp5930
a(V2457
VJaswantpura
tp5931
a(V5099
VRaniwara
tp5932
a(V5336
VSanchore
tp5933
a(V5459
VSayla
tp5934
as(V381
VNagaur
tp5935
(lp5936
(V1481
VDegana
tp5937
a(V1628
VDidwana
tp5938
a(V2471
VJayal
tp5939
a(V3218
VKuchaman City
tp5940
a(V3322
VLadnu
tp5941
a(V3577
VMakrana
tp5942
a(V3845
VMerta
tp5943
a(V3992
VMundwa
tp5944
a(V4069
VNagaur
tp5945
a(V4557
VParbatsar
tp5946
a(V5174
VRiyan
tp5947
as(V93
VBundi
tp5948
(lp5949
(V1067
VBundi
tp5950
a(V2218
VHindoli
tp5951
a(V2896
VKeshoraipatan
tp5952
a(V4095
VNainwa
tp5953
a(V5870
VTalera
tp5954
as(V413
VPali
tp5955
(lp5956
(V452
VBali
tp5957
a(V1519
VDesuri
tp5958
a(V2366
VJaitaran
tp5959
a(V3747
VMarwar Junction
tp5960
a(V4465
VPali
tp5961
a(V4946
VRaipur
tp5962
a(V5086
VRani
tp5963
a(V5182
VRohat
tp5964
a(V5713
VSojat
tp5965
a(V5803
VSumerpur
tp5966
as(V81
VBikaner
tp5967
(lp5968
(V934
VBikaner
tp5969
a(V1708
VDungargarh
tp5970
a(V2927
VKhajuwala
tp5971
a(V3091
VKolayat
tp5972
a(V3450
VLunkaransar
tp5973
a(V4335
VNokha
tp5974
as(V258
VJhunjhunun
tp5975
(lp5976
(V100
VAlsisar
tp5977
a(V1062
VBuhana
tp5978
a(V1319
VChirawa
tp5979
a(V2507
VJhunjhunun
tp5980
a(V3003
VKhetri
tp5981
a(V4251
VNawalgarh
tp5982
a(V5813
VSurajgarh
tp5983
a(V6171
VUdaipurwati
tp5984
as(V260
VJodhpur
tp5985
(lp5986
(V449
VBalesar
tp5987
a(V547
VBaori
tp5988
a(V548
VBap
tp5989
a(V879
VBhopalgarh
tp5990
a(V939
VBilara
tp5991
a(V3449
VLuni
tp5992
a(V3652
VMandor
tp5993
a(V4396
VOsian
tp5994
a(V4725
VPhalodi
tp5995
a(V5558
VShergarh
tp5996
as(V136
VDausa
tp5997
(lp5998
(V497
VBandikui
tp5999
a(V1470
VDausa
tp6000
a(V3367
VLalsot
tp6001
a(V3549
VMahwa
tp6002
a(V5624
VSikrai
tp6003
as(V527
VSri Ganganagar
tp6004
(lp6005
(V214
VAnupgarh
tp6006
a(V1843
VGanganagar
tp6007
a(V1922
VGharsana
tp6008
a(V2766
VKaranpur
tp6009
a(V4411
VPadampur
tp6010
a(V4954
VRaisinghnagar
tp6011
a(V5238
VSadulshahar
tp6012
a(V5817
VSuratgarh
tp6013
as(V213
VHanumangarh
tp6014
(lp6015
(V756
VBhadra
tp6016
a(V2131
VHanumangarh
tp6017
a(V4334
VNohar
tp6018
a(V4752
VPilibanga
tp6019
a(V5130
VRawatsar
tp6020
a(V5350
VSangaria
tp6021
a(V6073
VTibi
tp6022
as(V162
VDungarpur
tp6023
(lp6024
(V271
VAspur
tp6025
a(V903
VBichhiwara
tp6026
a(V1709
VDungarpur
tp6027
a(V5247
VSagwara
tp6028
a(V5636
VSimalwara
tp6029
as(V237
VJaipur
tp6030
(lp6031
(V137
VAmber
tp6032
a(V652
VBassi
tp6033
a(V1123
VChaksu
tp6034
a(V1684
VDudu
tp6035
a(V2028
VGovindgarh
tp6036
a(V2434
VJamwa Ramgarh
tp6037
a(V2504
VJhotwara
tp6038
a(V3178
VKotputli
tp6039
a(V4723
VPhagi
tp6040
a(V5322
VSambhar
tp6041
a(V5348
VSanganer
tp6042
a(V5519
VShahpura
tp6043
a(V6376
VViratnagar (Bairath)
tp6044
as(V55
VBarmer
tp6045
(lp6046
(V474
VBalotra (Pachpadra)
tp6047
a(V611
VBarmer
tp6048
a(V674
VBaytoo
tp6049
a(V1343
VChohtan
tp6050
a(V1616
VDhorimanna (Gudha Malani)
tp6051
a(V5553
VSheo
tp6052
a(V5648
VSindhari
tp6053
a(V5700
VSiwana
tp6054
as(V49
VBanswara
tp6055
(lp6056
(V175
VAnandpuri
tp6057
a(V387
VBagidora
tp6058
a(V543
VBanswara
tp6059
a(V1268
VChhoti Sarwan
tp6060
a(V1873
VGarhi
tp6061
a(V1934
VGhatol
tp6062
a(V3300
VKushalgarh
tp6063
a(V4681
VPeepal Khoont
tp6064
a(V5282
VSajjangarh
tp6065
as(V454
VRajsamand
tp6066
(lp6067
(V145
VAmet
tp6068
a(V852
VBhim
tp6069
a(V1499
VDeogarh
tp6070
a(V2942
VKhamnor
tp6071
a(V3248
VKumbhalgarh
tp6072
a(V4941
VRailmagra
tp6073
a(V5004
VRajsamand
tp6074
as(V312
VKota
tp6075
(lp6076
(V2321
VItawa
tp6077
a(V2997
VKherabad
tp6078
a(V3323
VLadpura
tp6079
a(V5355
VSangod
tp6080
a(V5799
VSultanpur
tp6081
as(V504
VSikar
tp6082
(lp6083
(V1434
VDanta Ramgarh
tp6084
a(V1611
VDhod
tp6085
a(V1773
VFatehpur
tp6086
a(V2954
VKhandela
tp6087
a(V3319
VLachhmangarh
tp6088
a(V4266
VNeem Ka Thana
tp6089
a(V4769
VPiprali
tp6090
a(V5757
VSri Madhopur
tp6091
as(V486
VSawaimadhopur
tp6092
(lp6093
(V481
VBamanwas
tp6094
a(V1029
VBonli
tp6095
a(V1844
VGangapur
tp6096
a(V2952
VKhandar
tp6097
a(V5456
VSawaimadhopur
tp6098
as(V13
VAlwar
tp6099
(lp6100
(V541
VBansur
tp6101
a(V691
VBehror
tp6102
a(V2834
VKathumar
tp6103
a(V3050
VKishangarh Bas
tp6104
a(V3175
VKotkasim
tp6105
a(V3320
VLachhmangarh
tp6106
a(V3989
VMundawar
tp6107
a(V4311
VNimrana
tp6108
a(V4979
VRajgarh
tp6109
a(V5037
VRamgarh
tp6110
a(V5156
VReni
tp6111
a(V5987
VThanagazi
tp6112
a(V6079
VTijara
tp6113
a(V6208
VUmren
tp6114
ass(V12
VGujarat
tp6115
(dp6116
(V394
VNavsari
tp6117
(lp6118
(V1281
VChikhli
tp6119
a(V1831
VGandevi
tp6120
a(V2384
VJalalpor
tp6121
a(V4239
VNavsari
tp6122
a(V6283
VVansda
tp6123
as(V323
VKutch
tp6124
(lp6125
(V3
VAbadasa
tp6126
a(V197
VAnjar
tp6127
a(V747
VBhachau
tp6128
a(V889
VBhuj
tp6129
a(V1834
VGandhidham
tp6130
a(V3348
VLakhpat
tp6131
a(V3657
VMandvi
tp6132
a(V3991
VMundra
tp6133
a(V4100
VNakhatrana
tp6134
a(V5105
VRapar
tp6135
as(V533
VSurat
tp6136
(lp6137
(V581
VBardoli
tp6138
a(V1353
VChoryasi
tp6139
a(V1366
VCity Surat
tp6140
a(V2687
VKamrej
tp6141
a(V3548
VMahuwa
tp6142
a(V3656
VMandvi
tp6143
a(V3672
VMangrol
tp6144
a(V4384
VOlpad
tp6145
a(V4481
VPalsana
tp6146
a(V6203
VUmarpada
tp6147
as(V534
VSurendranagar
tp6148
(lp6149
(V1354
VChotila
tp6150
a(V1360
VChuda
tp6151
a(V1455
VDasada Patadi
tp6152
a(V1617
VDhrangadhra
tp6153
a(V2119
VHalvad
tp6154
a(V3349
VLakhtar
tp6155
a(V3411
VLimbdi
tp6156
a(V3974
VMuli
tp6157
a(V5458
VSayla
tp6158
a(V6400
VWadhwan
tp6159
as(V472
VSabarkantha
tp6160
(lp6161
(V672
VBayad
tp6162
a(V851
VBhiloda
tp6163
a(V1565
VDhansura
tp6164
a(V2213
VHimatnagar
tp6165
a(V2279
VIdar
tp6166
a(V2992
VKhedbrahma
tp6167
a(V3607
VMalpur
tp6168
a(V3812
VMeghraj
tp6169
a(V3875
VModasa
tp6170
a(V4823
VPrantij
tp6171
a(V5877
VTalod
tp6172
a(V6251
VVadali
tp6173
a(V6359
VVijaynagar
tp6174
as(V3
VAhmedabad
tp6175
(lp6176
(V39
VAhmedabad (City)
tp6177
a(V628
VBarwala
tp6178
a(V669
VBavla
tp6179
a(V1456
VDascroi
tp6180
a(V1520
VDetroj
tp6181
a(V1555
VDhandhuka
tp6182
a(V1612
VDholka
tp6183
a(V3634
VMandal
tp6184
a(V5103
VRanpur
tp6185
a(V5334
VSanand
tp6186
a(V6375
VViramgam
tp6187
as(V70
VBharuch
tp6188
(lp6189
(V156
VAmod
tp6190
a(V200
VAnkleshwar
tp6191
a(V814
VBharuch
tp6192
a(V2127
VHansot
tp6193
a(V2416
VJambusar
tp6194
a(V2486
VJhagadia
tp6195
a(V6269
VValia
tp6196
a(V6406
VWagra
tp6197
as(V391
VNarmada
tp6198
(lp6199
(V1477
VDediapada
tp6200
a(V4148
VNandod
tp6201
a(V5246
VSagbara
tp6202
a(V6083
VTilakwada
tp6203
as(V451
VRajkot
tp6204
(lp6205
(V1615
VDhoraji
tp6206
a(V1993
VGondal
tp6207
a(V2419
VJamkandorana
tp6208
a(V2449
VJasdan
tp6209
a(V2479
VJetpur
tp6210
a(V3158
VKotda Sangani
tp6211
a(V3423
VLodhika
tp6212
a(V3595
VMaliya Miyana
tp6213
a(V3921
VMorbi
tp6214
a(V4414
VPaddhari
tp6215
a(V4985
VRajkot
tp6216
a(V5904
VTankara
tp6217
a(V6223
VUpleta
tp6218
a(V6416
VWankaner
tp6219
as(V363
VMehsana
tp6220
(lp6221
(V679
VBecharaji
tp6222
a(V2568
VKadi
tp6223
a(V2999
VKheralu
tp6224
a(V3822
VMehsana
tp6225
a(V5441
VSatlasana
tp6226
a(V6222
VUnjha
tp6227
a(V6257
VVadnagar
tp6228
a(V6355
VVijapur
tp6229
a(V6384
VVisnagar
tp6230
as(V189
VGandhinagar
tp6231
(lp6232
(V1485
VDehgam
tp6233
a(V1835
VGandhinagar
tp6234
a(V2651
VKalol
tp6235
a(V3705
VMansa
tp6236
as(V433
VPorbandar
tp6237
(lp6238
(V3312
VKutiyana
tp6239
a(V4812
VPorbandar
tp6240
a(V5078
VRanavav
tp6241
as(V130
VDangs
tp6242
(lp6243
(V1426
VDangs
tp6244
as(V421
VPatan
tp6245
(lp6246
(V1141
VChanasma
tp6247
a(V2149
VHarij
tp6248
a(V4593
VPatan
tp6249
a(V4908
VRadhanpur
tp6250
a(V5325
VSami
tp6251
a(V5380
VSantalpur
tp6252
a(V5608
VSidhpur
tp6253
as(V125
VDahod
tp6254
(lp6255
(V1400
VDahod
tp6256
a(V1531
VDevgadhbaria
tp6257
a(V1563
VDhanpur
tp6258
a(V1778
VFatepura
tp6259
a(V1867
VGarabada
tp6260
a(V2491
VJhalod
tp6261
a(V3412
VLimkheda
tp6262
as(V17
VAmreli
tp6263
(lp6264
(V161
VAmreli
tp6265
a(V339
VBabara
tp6266
a(V372
VBagasara
tp6267
a(V1582
VDhari
tp6268
a(V2329
VJafrabad
tp6269
a(V2936
VKhambha
tp6270
a(V3266
VKunkavav
tp6271
a(V3387
VLathi
tp6272
a(V3410
VLiliya
tp6273
a(V5006
VRajula
tp6274
a(V5454
VSavarkundla
tp6275
as(V19
VAnand
tp6276
(lp6277
(V171
VAnand
tp6278
a(V199
VAnklav
tp6279
a(V1041
VBorsad
tp6280
a(V2938
VKhambhat
tp6281
a(V4720
VPetlad
tp6282
a(V5714
VSojitra
tp6283
a(V5930
VTarpur
tp6284
a(V6209
VUmreth
tp6285
as(V262
VJunagadh
tp6286
(lp6287
(V844
VBhesan
tp6288
a(V2540
VJunagadh
tp6289
a(V2895
VKeshod
tp6290
a(V3069
VKodinar
tp6291
a(V3592
VMalia
tp6292
a(V3626
VManavadar
tp6293
a(V3671
VMangrol
tp6294
a(V3838
VMendarda
tp6295
a(V5832
VSutrapada
tp6296
a(V5863
VTalala
tp6297
a(V6213
VUna
tp6298
a(V6284
VVanthali
tp6299
a(V6346
VVeraval
tp6300
a(V6380
VVisavadar
tp6301
as(V247
VJamnagar
tp6302
(lp6303
(V801
VBhanwad
tp6304
a(V1618
VDhrol
tp6305
a(V2418
VJamjodhpur
tp6306
a(V2423
VJamnagar
tp6307
a(V2519
VJodiya
tp6308
a(V2620
VKalavad
tp6309
a(V2666
VKalyanpur
tp6310
a(V2937
VKhambhalia
tp6311
a(V3366
VLalpur
tp6312
a(V4380
VOkhamandal Dwarka
tp6313
as(V574
VVadodara
tp6314
(lp6315
(V1265
VChhotaudepur
tp6316
a(V1383
VDabhoi
tp6317
a(V2480
VJetpur Pavi
tp6318
a(V2782
VKarjan
tp6319
a(V2868
VKawant
tp6320
a(V4217
VNaswadi
tp6321
a(V4420
VPadra
tp6322
a(V5374
VSankheda
tp6323
a(V5455
VSavli
tp6324
a(V5663
VSinor
tp6325
a(V6258
VVadodara
tp6326
a(V6404
VWaghodia
tp6327
as(V537
VTapi
tp6328
(lp6329
(V4331
VNizar
tp6330
a(V5732
VSongadh
tp6331
a(V6163
VUchchhal
tp6332
a(V6276
VValod
tp6333
a(V6393
VVyara
tp6334
as(V71
VBhavnagar
tp6335
(lp6336
(V829
VBhavnagar
tp6337
a(V1042
VBotad
tp6338
a(V1796
VGadhada
tp6339
a(V1881
VGariyadhar
tp6340
a(V1941
VGhogha
tp6341
a(V3547
VMahuva
tp6342
a(V4469
VPalitana
tp6343
a(V5617
VSihor
tp6344
a(V5861
VTalaja
tp6345
a(V6199
VUmarala
tp6346
a(V6272
VVallbhipur
tp6347
as(V576
VValsad
tp6348
(lp6349
(V1574
VDharampur
tp6350
a(V2742
VKaparada
tp6351
a(V4563
VPardi
tp6352
a(V6204
VUmbergam
tp6353
a(V6277
VValsad
tp6354
as(V295
VKheda
tp6355
(lp6356
(V442
VBalasinor
tp6357
a(V2741
VKapadwanj
tp6358
a(V2831
VKathlal
tp6359
a(V2991
VKheda
tp6360
a(V3525
VMahemdavad
tp6361
a(V3545
VMahudha
tp6362
a(V3756
VMatar
tp6363
a(V4049
VNadiad
tp6364
a(V5999
VThasra
tp6365
a(V6377
VVirpur
tp6366
as(V43
VBanaskantha
tp6367
(lp6368
(V149
VAmirgadh
tp6369
a(V743
VBhabhar
tp6370
a(V1433
VDanta
tp6371
a(V1438
VDantiwada
tp6372
a(V1480
VDeesa
tp6373
a(V1496
VDeodar
tp6374
a(V1556
VDhanera
tp6375
a(V2728
VKankrej
tp6376
a(V4452
VPalanpur
tp6377
a(V5995
VTharad
tp6378
a(V6255
VVadgam
tp6379
a(V6430
VWav
tp6380
as(V415
VPanchmahals
tp6381
(lp6382
(V1942
VGhoghamba
tp6383
a(V1965
VGodhra.
tp6384
a(V2117
VHalol
tp6385
a(V2415
VJambughoda
tp6386
a(V2561
VKadana
tp6387
a(V2652
VKalol
tp6388
a(V2960
VKhanpur
tp6389
a(V3445
VLunawada
tp6390
a(V3931
VMorva (Hadaf)
tp6391
a(V5388
VSantrampur
tp6392
a(V5508
VShahera.
tp6393
ass(V34
VUttarakhand
tp6394
(dp6395
(V36
VBageshwar
tp6396
(lp6397
(V377
VBageshwar
tp6398
a(V1889
VGarur
tp6399
a(V2745
VKapkote
tp6400
as(V431
VPithoragarh
tp6401
(lp6402
(V726
VBerinag
tp6403
a(V953
VBin
tp6404
a(V1579
VDharchula
tp6405
a(V1627
VDidihat
tp6406
a(V1856
VGangolihat
tp6407
a(V2693
VKanalichina
tp6408
a(V3983
VMunakote
tp6409
a(V4000
VMunsyari
tp6410
as(V425
VPauri
tp6411
(lp6412
(V971
VBirokhal
tp6413
a(V1687
VDugada
tp6414
a(V1723
VDwarikhal
tp6415
a(V1731
VEkeshwar
tp6416
a(V2640
VKaljikhal
tp6417
a(V3008
VKhirsu
tp6418
a(V3147
VKot
tp6419
a(V4093
VNainidanda
tp6420
a(V4405
VPabo
tp6421
a(V4643
VPauri
tp6422
a(V4788
VPokhra
tp6423
a(V5168
VRikhinkhal
tp6424
a(V5979
VThalisain
tp6425
a(V6448
VYamkeshwar
tp6426
a(V6477
VZahrikhal
tp6427
as(V101
VChampawat
tp6428
(lp6429
(V562
VBarakot
tp6430
a(V1137
VChampawat
tp6431
a(V3425
VLohaghat
tp6432
a(V4618
VPati
tp6433
as(V469
VRudraprayag
tp6434
(lp6435
(V307
VAugustmuni
tp6436
a(V2375
VJakholi
tp6437
a(V6192
VUkimath
tp6438
as(V100
VChamoli
tp6439
(lp6440
(V1459
VDasoli
tp6441
a(V1538
VDewal
tp6442
a(V1808
VGairsain
tp6443
a(V1924
VGhat
tp6444
a(V2529
VJoshimath
tp6445
a(V2765
VKaranprayag
tp6446
a(V4167
VNarayan Bagar
tp6447
a(V4789
VPokhri
tp6448
a(V5996
VTharali
tp6449
as(V539
VTehri
tp6450
(lp6451
(V776
VBhailgana
tp6452
a(V1132
VChamba
tp6453
a(V1536
VDevprayag
tp6454
a(V2374
VJakhnidhar
tp6455
a(V2464
VJaunpur
tp6456
a(V3047
VKirti Nagar
tp6457
a(V4182
VNarendra Nagar
tp6458
a(V4824
VPratap Nagar
tp6459
a(V6001
VThauldhar
tp6460
as(V138
VDehradun
tp6461
(lp6462
(V1113
VChakarata
tp6463
a(V1656
VDoiwala
tp6464
a(V2656
VKalsi
tp6465
a(V4947
VRaipur
tp6466
a(V5253
VSahaspur
tp6467
a(V6365
VVikasnagar
tp6468
as(V573
VUttarkashi
tp6469
(lp6470
(V826
VBhatwari
tp6471
a(V1313
VChinyalisaur
tp6472
a(V1707
VDunda
tp6473
a(V3923
VMori
tp6474
a(V4228
VNaugaon
tp6475
a(V4874
VPurola
tp6476
as(V561
VUdham Singh Nagar
tp6477
(lp6478
(V678
VBazpur
tp6479
a(V1795
VGaderpur
tp6480
a(V2452
VJaspur
tp6481
a(V2579
VKahatima
tp6482
a(V2809
VKashipur
tp6483
a(V5204
VRudrapur
tp6484
a(V5694
VSitarganj
tp6485
as(V12
VAlmora
tp6486
(lp6487
(V782
VBhaisiachhana
tp6488
a(V849
VBhikiyasain
tp6489
a(V1202
VChaukhutia
tp6490
a(V1602
VDhauladevi
tp6491
a(V1721
VDwarahat
tp6492
a(V2199
VHawalbag
tp6493
a(V3372
VLamgara
tp6494
a(V5793
VSult
tp6495
a(V5835
VSyaldey
tp6496
a(V5859
VTakula
tp6497
a(V5925
VTarikhet
tp6498
as(V216
VHaridwar
tp6499
(lp6500
(V395
VBahadrabad
tp6501
a(V769
VBhagwanpur
tp6502
a(V2959
VKhanpur
tp6503
a(V3353
VLaksar
tp6504
a(V4203
VNarsan
tp6505
a(V5198
VRoorkee
tp6506
as(V383
VNainital
tp6507
(lp6508
(V733
VBetalghat
tp6509
a(V856
VBhimtal
tp6510
a(V1581
VDhari
tp6511
a(V2114
VHaldwani
tp6512
a(V3152
VKotabagh
tp6513
a(V4379
VOkalkanda
tp6514
a(V5040
VRamgarh
tp6515
a(V5053
VRamnagar
tp6516
ass(V23
VMeghalaya
tp6517
(dp6518
(V524
VSouth Garo Hills
tp6519
(lp6520
(V381
VBaghmara
tp6521
a(V1344
VChokpot
tp6522
a(V1890
VGasuapara
tp6523
a(V5192
VRongara
tp6524
as(V593
VWest Khasi Hills
tp6525
(lp6526
(V3556
VMairang
tp6527
a(V3787
VMawkyrwat
tp6528
a(V3790
VMawshynrut
tp6529
a(V3792
VMawthadraishan
tp6530
a(V4339
VNongstoin
tp6531
a(V5095
VRanikor
tp6532
as(V169
VEast Khasi Hills
tp6533
(lp6534
(V3334
VLaitkroh-Khadar Shnong
tp6535
a(V3786
VMawkynrew
tp6536
a(V3788
VMawphlang
tp6537
a(V3789
VMawryngkneng
tp6538
a(V3791
VMawsynram
tp6539
a(V4037
VMylliem
tp6540
a(V4894
VPynursla
tp6541
a(V5551
VShella Bholaganj
tp6542
as(V236
VJaintia
tp6543
(lp6544
(V151
VAmlarem
tp6545
a(V3009
VKhliehriat
tp6546
a(V3384
VLaskein
tp6547
a(V5278
VSaipung
tp6548
a(V5969
VThadlaskein
tp6549
as(V465
VRi Bhoi
tp6550
(lp6551
(V2511
VJirang
tp6552
a(V6206
VUmling
tp6553
a(V6211
VUmsning
tp6554
as(V166
VEast Garo Hills
tp6555
(lp6556
(V1411
VDambo Rongjeng
tp6557
a(V2977
VKharkutta
tp6558
a(V5164
VResubelpara
tp6559
a(V5316
VSamanda
tp6560
a(V5734
VSongsak
tp6561
as(V590
VWest Garo Hills
tp6562
(lp6563
(V734
VBetasing
tp6564
a(V1389
VDadenggre
tp6565
a(V1408
VDalu
tp6566
a(V1820
VGambegre
tp6567
a(V5196
VRongram
tp6568
a(V5474
VSelsella
tp6569
a(V6082
VTikrikilla
tp6570
a(V6483
VZikzak
tp6571
ass(V31
VTamilnadu
tp6572
(dp6573
(V158
VDindigul
tp6574
(lp6575
(V288
VAthoor
tp6576
a(V667
VBatlagundu
tp6577
a(V1639
VDindigul
tp6578
a(V2091
VGuziliamparai
tp6579
a(V3060
VKodaikanal
tp6580
a(V4220
VNatham
tp6581
a(V4301
VNilakottai
tp6582
a(V4375
VOddanchatram
tp6583
a(V4451
VPalani
tp6584
a(V5143
VReddiarchatram
tp6585
a(V5536
VShanarpatti
tp6586
a(V6055
VThoppampatti
tp6587
a(V6252
VVadamadurai
tp6588
a(V6301
VVedasandur
tp6589
as(V551
VTirunelveli
tp6590
(lp6591
(V77
VAlankulam
tp6592
a(V133
VAmbasamudram
tp6593
a(V1238
VCheranmahadevi
tp6594
a(V2564
VKadayam
tp6595
a(V2566
VKadayanallur
tp6596
a(V2606
VKalakadu
tp6597
a(V2875
VKeelapavoor
tp6598
a(V3297
VKuruvikulam
tp6599
a(V3716
VManur
tp6600
a(V3829
VMelaneelithanallur
tp6601
a(V4155
VNanguneri
tp6602
a(V4457
VPalayamkottai
tp6603
a(V4538
VPappakudi
tp6604
a(V4909
VRadhapuram
tp6605
a(V5370
VSankarankoil
tp6606
a(V5552
VShencottai
tp6607
a(V5958
VTenkasi
tp6608
a(V6273
VValliyoor
tp6609
a(V6293
VVasudevanallur
tp6610
as(V121
VCuddalore
tp6611
(lp6612
(V202
VAnnagramam
tp6613
a(V1375
VCuddalore
tp6614
a(V2684
VKammapuram
tp6615
a(V2854
VKattumannar Koil
tp6616
a(V2876
VKeerapalayam
tp6617
a(V3242
VKumaratchi
tp6618
a(V3284
VKurinjipadi
tp6619
a(V3663
VMangalore
tp6620
a(V3830
VMelbhuvanagiri
tp6621
a(V4118
VNallur
tp6622
a(V4525
VPanruti
tp6623
a(V4549
VParangipettai
tp6624
a(V6390
VVridhachalam
tp6625
as(V553
VTiruvallur
tp6626
(lp6627
(V1739
VEllapuram
tp6628
a(V2065
VGummidipoondi
tp6629
a(V2559
VKadambathur
tp6630
a(V3861
VMinjur
tp6631
a(V4477
VPallipet
tp6632
a(V4808
VPoonamallee
tp6633
a(V4810
VPoondi
tp6634
a(V4893
VPuzhal
tp6635
a(V4903
VR.K.Pet
tp6636
a(V5587
VSholavaram
tp6637
a(V6107
VTiruttani
tp6638
a(V6108
VTiruvalangadu
tp6639
a(V6109
VTiruvallur
tp6640
a(V6370
VVillivakkam
tp6641
as(V282
VKarur
tp6642
(lp6643
(V227
VAravakurichi
tp6644
a(V2548
VK Paramathi
tp6645
a(V2563
VKadavur
tp6646
a(V2800
VKarur
tp6647
a(V3207
VKrishnarayapuram
tp6648
a(V3237
VKulithalai
tp6649
a(V5994
VThanthoni
tp6650
a(V6048
VThogamalai
tp6651
as(V559
VTuticorin
tp6652
(lp6653
(V103
VAlwarthirunageri
tp6654
a(V2799
VKarungulam
tp6655
a(V2870
VKayathar
tp6656
a(V3188
VKovilpatti
tp6657
a(V4398
VOttapidaram
tp6658
a(V4842
VPudur
tp6659
a(V5442
VSattankulam
tp6660
a(V5772
VSrivaikuntam
tp6661
a(V6054
VThoothukudi
tp6662
a(V6098
VTiruchendur
tp6663
a(V6175
VUdangudi
tp6664
a(V6369
VVilathikulam
tp6665
as(V541
VThanjavur
tp6666
(lp6667
(V153
VAmmapet
tp6668
a(V1053
VBudalur
tp6669
a(V3247
VKumbakonam
tp6670
a(V3498
VMadukkur
tp6671
a(V4391
VOrathanadu
tp6672
a(V4536
VPapanasam
tp6673
a(V4639
VPattukkottai
tp6674
a(V4708
VPeravurani
tp6675
a(V5495
VSethubavachatram
tp6676
a(V5992
VThanjavur
tp6677
a(V6037
VThiruvaiyaru
tp6678
a(V6043
VThiruvidaimarudur
tp6679
a(V6044
VThiruvonam
tp6680
a(V6102
VTiruppanandal
tp6681
as(V27
VAriyalur
tp6682
(lp6683
(V187
VAndimadam
tp6684
a(V237
VAriyalur
tp6685
a(V2472
VJayamkondam
tp6686
a(V5480
VSendurai
tp6687
a(V5840
VT Palur
tp6688
a(V6025
VThirumanur
tp6689
as(V578
VVellore
tp6690
(lp6691
(V76
VAlangayam
tp6692
a(V167
VAnaicut
tp6693
a(V218
VArakonam
tp6694
a(V230
VArcot
tp6695
a(V2045
VGudiyatham
tp6696
a(V2522
VJolarpet
tp6697
a(V2552
VK.V. Kuppam
tp6698
a(V2703
VKandhili
tp6699
a(V2720
VKaniyambadi
tp6700
a(V2843
VKatpadi
tp6701
a(V2864
VKaveripakkam
tp6702
a(V3479
VMadhanur
tp6703
a(V4225
VNatrampalli
tp6704
a(V4275
VNemili
tp6705
a(V4713
VPernambet
tp6706
a(V5588
VSholinghur
tp6707
a(V6011
VThimiri
tp6708
a(V6029
VThirupathur
tp6709
a(V6322
VVellore
tp6710
a(V6411
VWalajah
tp6711
as(V426
VPerambalur
tp6712
(lp6713
(V78
VAlathur
tp6714
a(V4703
VPerambalur
tp6715
a(V6344
VVeppanthattai
tp6716
a(V6345
VVeppur
tp6717
as(V555
VTiruvarur
tp6718
(lp6719
(V3066
VKodavasal
tp6720
a(V3130
VKoradacheri
tp6721
a(V3183
VKottur
tp6722
a(V3694
VMannargudi
tp6723
a(V4029
VMuthupettai
tp6724
a(V4157
VNannilam
tp6725
a(V4265
VNeedamangalam
tp6726
a(V6035
VThiruthuraipoondi
tp6727
a(V6039
VThiruvarur
tp6728
a(V6267
VValangaiman
tp6729
as(V514
VSivagangai
tp6730
(lp6731
(V1522
VDevakottai
tp6732
a(V2284
VIlayangudi
tp6733
a(V2604
VKalaiyarkoil
tp6734
a(V2643
VKallal
tp6735
a(V2731
VKannangudi
tp6736
a(V3620
VManamadurai
tp6737
a(V5222
VS.Pudur
tp6738
a(V5287
VSakkottai
tp6739
a(V5651
VSingampunari
tp6740
a(V5696
VSivagangai
tp6741
a(V6032
VThiruppathur
tp6742
a(V6034
VThiruppuvanam
tp6743
as(V542
VThe Nilgiris
tp6744
(lp6745
(V1373
VCoonoor
tp6746
a(V2034
VGudalur
tp6747
a(V3154
VKotagiri
tp6748
a(V6179
VUdhagai
tp6749
as(V478
VSalem
tp6750
(lp6751
(V306
VAttur
tp6752
a(V326
VAyothiyapattinam
tp6753
a(V1848
VGangavalli
tp6754
a(V2278
VIdappady
tp6755
a(V2565
VKadayampatti
tp6756
a(V3090
VKolathur
tp6757
a(V3120
VKonganapuram
tp6758
a(V3453
VMac. Choultry
tp6759
a(V3802
VMecheri
tp6760
a(V4154
VNangavalli
tp6761
a(V4385
VOmalur
tp6762
a(V4403
VP.N.Palayam
tp6763
a(V4495
VPanamarathupatti
tp6764
a(V5300
VSalem
tp6765
a(V5372
VSankari
tp6766
a(V5976
VThalaivasal
tp6767
a(V5997
VTharamangalam
tp6768
a(V6268
VValapady
tp6769
a(V6306
VVeerapandy
tp6770
a(V6467
VYercaud
tp6771
as(V380
VNagapattinam
tp6772
(lp6773
(V2874
VKeelaiyur
tp6774
a(V3037
VKilvelur
tp6775
a(V3098
VKollidam
tp6776
a(V3309
VKuthalam
tp6777
a(V3794
VMayiladuthurai
tp6778
a(V4059
VNagapattinam
tp6779
a(V5475
VSembanarkoil
tp6780
a(V5671
VSirkali
tp6781
a(V5975
VThalainayar
tp6782
a(V6026
VThirumarugal
tp6783
a(V6300
VVedaranyam
tp6784
as(V550
VTiruchirappalli
tp6785
(lp6786
(V184
VAndanallur
tp6787
a(V3365
VLalgudi
tp6788
a(V3618
VManachanallur
tp6789
a(V3623
VManapparai
tp6790
a(V3679
VManikandam
tp6791
a(V3743
VMarungapuri
tp6792
a(V4020
VMusiri
tp6793
a(V4850
VPullampady
tp6794
a(V5845
VT.Pet
tp6795
a(V6042
VThiruverambur
tp6796
a(V6060
VThottiam
tp6797
a(V6069
VThuraiyur
tp6798
a(V6226
VUppiliyapuram
tp6799
a(V6263
VVaiyampatty
tp6800
as(V552
VTiruppur
tp6801
(lp6802
(V322
VAvinashi
tp6803
a(V1578
VDharapuram
tp6804
a(V2042
VGudimangalam
tp6805
a(V2711
VKangayam
tp6806
a(V3256
VKundadam
tp6807
a(V3470
VMadathukulam
tp6808
a(V3970
VMulanur
tp6809
a(V4472
VPalladam
tp6810
a(V4802
VPongalur
tp6811
a(V6103
VTiruppur
tp6812
a(V6183
VUdumalpet
tp6813
a(V6242
VUthukuli
tp6814
a(V6318
VVellakoil
tp6815
as(V580
VVillupuram
tp6816
(lp6817
(V1303
VChinnasalem
tp6818
a(V1956
VGingee
tp6819
a(V2642
VKallakurichi
tp6820
a(V2655
VKalrayanhills
tp6821
a(V2690
VKanai
tp6822
a(V2700
VKandamangalam
tp6823
a(V3094
VKoliyanur
tp6824
a(V3551
VMailam
tp6825
a(V3832
VMelmalayanur
tp6826
a(V3844
VMerkanam
tp6827
a(V3957
VMugaiyur
tp6828
a(V4381
VOlakkur
tp6829
a(V5169
VRishivandiyam
tp6830
a(V5371
VSankarapuram
tp6831
a(V6020
VThirukoilur
tp6832
a(V6028
VThirunavalur
tp6833
a(V6041
VThiruvennainallur
tp6834
a(V6045
VThiyagadurgam
tp6835
a(V6198
VUlundurpet
tp6836
a(V6271
VVallam
tp6837
a(V6285
VVanur
tp6838
a(V6368
VVikravandi
tp6839
as(V267
VKanchipuram
tp6840
(lp6841
(V13
VAcharapakkam
tp6842
a(V1323
VChithamur
tp6843
a(V2695
VKancheepuram
tp6844
a(V2850
VKattankolathur
tp6845
a(V3262
VKundrathur
tp6846
a(V3389
VLathur
tp6847
a(V3501
VMadurantakam
tp6848
a(V5767
VSriperumbudur
tp6849
a(V6019
VThirukalukundram
tp6850
a(V6030
VThiruporur
tp6851
a(V6049
VThomas Malai
tp6852
a(V6241
VUthiramerur
tp6853
a(V6410
VWalajabad
tp6854
as(V316
VKrishnagiri
tp6855
(lp6856
(V588
VBargur
tp6857
a(V2248
VHosur
tp6858
a(V2866
VKaveripattinam
tp6859
a(V2879
VKelamangalam
tp6860
a(V3202
VKrishnagiri
tp6861
a(V3763
VMathur
tp6862
a(V5589
VShoolagiri
tp6863
a(V5984
VThally
tp6864
a(V6239
VUthangarai
tp6865
a(V6343
VVeppanapalli
tp6866
as(V437
VPudukkottai
tp6867
(lp6868
(V203
VAnnavasal
tp6869
a(V223
VArantangi
tp6870
a(V236
VArimalam
tp6871
a(V324
VAvudayarkoil
tp6872
a(V1827
VGandarvakottai
tp6873
a(V2756
VKarambakkudi
tp6874
a(V3269
VKunnandarkoil
tp6875
a(V3621
VManamelkudi
tp6876
a(V4805
VPonnamaravathi
tp6877
a(V4840
VPudukkottai
tp6878
a(V6027
VThirumayam
tp6879
a(V6038
VThiruvarankulam
tp6880
a(V6374
VViralimalai
tp6881
as(V173
VErode
tp6882
(lp6883
(V154
VAmmapet
tp6884
a(V211
VAnthiyur
tp6885
a(V827
VBhavani
tp6886
a(V828
VBhavanisagar
tp6887
a(V1235
VChennimalai
tp6888
a(V1747
VErode
tp6889
a(V1963
VGobi
tp6890
a(V3070
VKodumudi
tp6891
a(V3873
VModakkuruchi
tp6892
a(V4121
VNambiyur
tp6893
a(V4717
VPerundurai
tp6894
a(V5440
VSathy
tp6895
a(V5843
VT.N. Palayam
tp6896
a(V5866
VTalavadi
tp6897
as(V581
VVirudunagar
tp6898
(lp6899
(V250
VAruppukottai
tp6900
a(V2777
VKariapatti
tp6901
a(V4186
VNarikudi
tp6902
a(V4966
VRajapalayam
tp6903
a(V5445
VSattur
tp6904
a(V5697
VSivakasi
tp6905
a(V5773
VSrivilliputhur
tp6906
a(V6018
VThiruchuli
tp6907
a(V6326
VVembakottai
tp6908
a(V6378
VVirudhunagar
tp6909
a(V6429
VWatrap
tp6910
as(V387
VNamakkal
tp6911
(lp6912
(V1733
VElacipalayam
tp6913
a(V1748
VErumapatty
tp6914
a(V2554
VKabilarmalai
tp6915
a(V3099
VKollihills
tp6916
a(V3603
VMallasamudram
tp6917
a(V3893
VMohanur
tp6918
a(V4119
VNamagiripet
tp6919
a(V4120
VNamakkal
tp6920
a(V4476
VPallipalayam
tp6921
a(V4547
VParamathy
tp6922
a(V4839
VPuduchatram
tp6923
a(V5112
VRasipuram
tp6924
a(V5477
VSendamangalam
tp6925
a(V6099
VTiruchengode
tp6926
a(V6340
VVennandur
tp6927
as(V271
VKanniyakumari
tp6928
(lp6929
(V30
VAgastheeswaram
tp6930
a(V3035
VKilliyoor
tp6931
a(V3295
VKurunthancode
tp6932
a(V3833
VMelpuram
tp6933
a(V3985
VMunchirai
tp6934
a(V4961
VRajakkamangalam
tp6935
a(V6040
VThiruvattar
tp6936
a(V6062
VThovalai
tp6937
a(V6066
VThuckalay
tp6938
as(V148
VDharmapuri
tp6939
(lp6940
(V1590
VDharmapuri
tp6941
a(V2169
VHarur
tp6942
a(V2778
VKarimangalam
tp6943
a(V3919
VMorappur
tp6944
a(V4117
VNallampalli
tp6945
a(V4442
VPalacode
tp6946
a(V4539
VPappireddipatti
tp6947
a(V4694
VPennagaram
tp6948
as(V343
VMadurai
tp6949
(lp6950
(V75
VAlanganallur
tp6951
a(V1224
VChellampatti
tp6952
a(V2645
VKallikudi
tp6953
a(V3181
VKottampatti
tp6954
a(V3499
VMadurai East
tp6955
a(V3500
VMadurai West
tp6956
a(V3834
VMelur
tp6957
a(V5463
VSedapatti
tp6958
a(V5842
VT.Kallupatty
tp6959
a(V6023
VThirumangalam
tp6960
a(V6031
VThirupparankundram
tp6961
a(V6234
VUsilampatti
tp6962
a(V6256
VVadipatti
tp6963
as(V455
VRamanadhapuram
tp6964
(lp6965
(V1005
VBogalur
tp6966
a(V2558
VKadaladi
tp6967
a(V2688
VKamuthi
tp6968
a(V3640
VMandapam
tp6969
a(V3955
VMudukulathur
tp6970
a(V4092
VNainarkoil
tp6971
a(V4546
VParamakudi
tp6972
a(V4904
VR.S. Mangalam
tp6973
a(V5026
VRamanathapuram
tp6974
a(V6033
VThiruppullani
tp6975
a(V6036
VThiruvadanai
tp6976
as(V543
VTheni
tp6977
(lp6978
(V189
VAndipatti
tp6979
a(V1003
VBodinaickanur
tp6980
a(V1302
VChinnamanur
tp6981
a(V1377
VCumbum
tp6982
a(V4034
VMyladumparai
tp6983
a(V4711
VPeriyakulam
tp6984
a(V6007
VTheni
tp6985
a(V6238
VUthamapalayam
tp6986
as(V119
VCoimbatore
tp6987
(lp6988
(V168
VAnaimalai
tp6989
a(V206
VAnnur
tp6990
a(V2755
VKaramadai
tp6991
a(V3039
VKinathukadavu
tp6992
a(V3497
VMadukkarai
tp6993
a(V4404
VP.N.Palayam
tp6994
a(V4795
VPollachi(N)
tp6995
a(V4796
VPollachi(S)
tp6996
a(V5223
VS.S.Kulam
tp6997
a(V5797
VSultanpet
tp6998
a(V5800
VSulur
tp6999
a(V6050
VThondamuthur
tp7000
as(V554
VTiruvannamalai
tp7001
(lp7002
(V170
VAnakkavoor
tp7003
a(V245
VArni
tp7004
a(V1230
VChengam
tp7005
a(V1245
VChetpet
tp7006
a(V1248
VCheyyar
tp7007
a(V2467
VJawadumalai
tp7008
a(V2619
VKalasapakkam
tp7009
a(V3036
VKilpenathur
tp7010
a(V4705
VPeranamallur
tp7011
a(V4797
VPolur
tp7012
a(V4841
VPudupalayam
tp7013
a(V5989
VThandrampet
tp7014
a(V6006
VThellar
tp7015
a(V6070
VThurinjapuram
tp7016
a(V6110
VTiruvannamalai
tp7017
a(V6280
VVandavasi
tp7018
a(V6325
VVembakkam
tp7019
a(V6437
VWest Arni
tp7020
ass(V16
VJharkhand
tp7021
(dp7022
(V412
VPalamau
tp7023
(lp7024
(V986
VBishrampur
tp7025
a(V1107
VChainpur
tp7026
a(V1198
VChattarpur
tp7027
a(V1407
VDaltonganj Sadar
tp7028
a(V2147
VHariharganj
tp7029
a(V2264
VHussainabad
tp7030
a(V3408
VLesliganj
tp7031
a(V3625
VManatu
tp7032
a(V4513
VPandu
tp7033
a(V4523
VPanki
tp7034
a(V4594
VPatan
tp7035
a(V5435
VSatbarwa
tp7036
as(V410
VPakur
tp7037
(lp7038
(V158
VAmrapara
tp7039
a(V2227
VHiranpur
tp7040
a(V3421
VLittipara
tp7041
a(V3526
VMaheshpur
tp7042
a(V4439
VPakur Sadar
tp7043
a(V4440
VPakuria
tp7044
as(V329
VLatehar
tp7045
(lp7046
(V478
VBalumath
tp7047
a(V627
VBarwaidih
tp7048
a(V1172
VChandwa
tp7049
a(V1886
VGaru
tp7050
a(V3385
VLatehar Sadar
tp7051
a(V3544
VMahuatand
tp7052
a(V3678
VManika
tp7053
as(V146
VDhanbad
tp7054
(lp7055
(V382
VBaghmara
tp7056
a(V456
VBaliapur
tp7057
a(V1554
VDhanbad Sadar
tp7058
a(V2029
VGovindpur
tp7059
a(V2499
VJharia
tp7060
a(V4317
VNirsa
tp7061
a(V6130
VTopchanchi
tp7062
a(V6152
VTundi
tp7063
as(V618
VRamgarh
tp7064
(lp7065
(V6969
VGola
tp7066
a(V6970
VMandu
tp7067
a(V6971
VPatratu
tp7068
a(V6972
VRamgarh
tp7069
as(V204
VGumla
tp7070
(lp7071
(V641
VBasia
tp7072
a(V812
VBharno
tp7073
a(V982
VBishnupur
tp7074
a(V1109
VChainpur
tp7075
a(V1704
VDumri
tp7076
a(V1909
VGhaghra
tp7077
a(V2061
VGumla Sadar
tp7078
a(V2681
VKamdara
tp7079
a(V4471
VPalkot
tp7080
a(V4934
VRaidih
tp7081
a(V5686
VSisai
tp7082
as(V86
VBokaro
tp7083
(lp7084
(V728
VBermo
tp7085
a(V1148
VChandankiyari
tp7086
a(V1192
VChas
tp7087
a(V1991
VGomia
tp7088
a(V2446
VJaridhi
tp7089
a(V2819
VKasmar
tp7090
a(V4248
VNawadih
tp7091
a(V4718
VPetarwar
tp7092
as(V301
VKoderma
tp7093
(lp7094
(V1174
VChandwara
tp7095
a(V2356
VJainagar
tp7096
a(V3067
VKoderma Sadar
tp7097
a(V3733
VMarkacho
tp7098
a(V5437
VSatgawn
tp7099
as(V191
VGarhwa
tp7100
(lp7101
(V792
VBhandaria
tp7102
a(V831
VBhawanathpur
tp7103
a(V1297
VChinia
tp7104
a(V1422
VDandai
tp7105
a(V1623
VDhurki
tp7106
a(V1877
VGarhwa Sadar
tp7107
a(V2705
VKandi
tp7108
a(V2969
VKharaundhi
tp7109
a(V3563
VMajhiaon
tp7110
a(V3843
VMeral
tp7111
a(V4068
VNagaruntari
tp7112
a(V5045
VRamkanda
tp7113
a(V5048
VRamna
tp7114
a(V5101
VRanka
tp7115
as(V619
VKhunti
tp7116
(lp7117
(V6973
VKarra
tp7118
a(V6974
VKhunti
tp7119
a(V6975
VMurhu
tp7120
a(V6976
VRania
tp7121
a(V6977
VTorpa
tp7122
a(V7027
VSonahatu
tp7123
a(V7028
VBundu
tp7124
a(V7029
VBundu
tp7125
a(V7030
VTamar
tp7126
a(V7064
VArki
tp7127
as(V476
VSahebganj
tp7128
(lp7129
(V1036
VBorio
tp7130
a(V1074
VBurhait
tp7131
a(V1078
VBurharwa
tp7132
a(V3653
VMandro
tp7133
a(V4622
VPatna
tp7134
a(V4986
VRajmahal
tp7135
a(V5259
VSahebganj Sadar
tp7136
a(V5875
VTaljhari
tp7137
a(V6182
VUdhwa
tp7138
as(V108
VChatra
tp7139
(lp7140
(V1196
VChatra Sadar
tp7141
a(V1954
VGidhor
tp7142
a(V2260
VHunter Ganj
tp7143
a(V2324
VItkhori
tp7144
a(V3254
VKunda
tp7145
a(V3395
VLawalong
tp7146
a(V4605
VPathal Gadda
tp7147
a(V4829
VPratappur
tp7148
a(V5637
VSimaria
tp7149
a(V5898
VTandwa
tp7150
as(V506
VSimdega
tp7151
(lp7152
(V534
VBano
tp7153
a(V1017
VBolba
tp7154
a(V2392
VJaldega
tp7155
a(V3092
VKolebira
tp7156
a(V3280
VKurdeg
tp7157
a(V5639
VSimdega Sadar
tp7158
a(V6004
VThcthaitanger
tp7159
as(V595
VWest Singhbhum
tp7160
(lp7161
(V718
VBendgaon
tp7162
a(V1104
VChaibasa
tp7163
a(V1121
VChakradharpur
tp7164
a(V1966
VGoelkera
tp7165
a(V2333
VJagannathpur
tp7166
a(V2503
VJhinkpani
tp7167
a(V3024
VKhuntpani
tp7168
a(V3286
VKurnardungi
tp7169
a(V3687
VManjhari
tp7170
a(V3689
VManjhgaon
tp7171
a(V3697
VManoharpur
tp7172
a(V4332
VNoamundi
tp7173
a(V5740
VSonua
tp7174
a(V5906
VTantnagar
tp7175
a(V6129
VTonto
tp7176
as(V483
VSaraikela Kharsawan
tp7177
(lp7178
(V1156
VChandil
tp7179
a(V1823
VGamharia (Adityapur)
tp7180
a(V2273
VIchagarh
tp7181
a(V2979
VKharsawan
tp7182
a(V3216
VKuchai
tp7183
a(V4309
VNimdih
tp7184
a(V4992
VRajnagar (Govindpur)
tp7185
a(V5396
VSaraikela Sadar
tp7186
as(V458
VRanchi
tp7187
(lp7188
(V193
VAngara
tp7189
a(V729
VBero
tp7190
a(V1080
VBurmu
tp7191
a(V1177
VChanho
tp7192
a(V2725
VKanke
tp7193
a(V3380
VLapung
tp7194
a(V3642
VMandar
tp7195
a(V4125
VNamkum
tp7196
a(V4394
VOrmanjhi
tp7197
a(V5123
VRatu
tp7198
a(V5631
VSilli
tp7199
as(V248
VJamtara
tp7200
(lp7201
(V2429
VJamtara Sadar
tp7202
a(V3260
VKundhit
tp7203
a(V4106
VNala
tp7204
a(V4178
VNarayanpur
tp7205
as(V161
VDumka
tp7206
(lp7207
(V1699
VDumka Sadar
tp7208
a(V2011
VGopikander
tp7209
a(V2405
VJama
tp7210
a(V2447
VJarmundi
tp7211
a(V2830
VKathikund
tp7212
a(V3748
VMasalia
tp7213
a(V5039
VRamgarh
tp7214
a(V5080
VRaneshwar
tp7215
a(V5401
VSaraiyahaat
tp7216
a(V5564
VShikaripara
tp7217
as(V171
VEast Singhbhum
tp7218
(lp7219
(V409
VBahragora
tp7220
a(V1124
VChakulia
tp7221
a(V1543
VDhalbhumgarh
tp7222
a(V1694
VDumaria
tp7223
a(V1935
VGhatsila
tp7224
a(V2428
VJamshedpur Sadar
tp7225
a(V4016
VMusabani
tp7226
a(V4590
VPatamda
tp7227
a(V4816
VPotka
tp7228
as(V195
VGiridih
tp7229
(lp7230
(V393
VBagodar
tp7231
a(V719
VBengabad
tp7232
a(V970
VBirni
tp7233
a(V1508
VDeori
tp7234
a(V1705
VDumri
tp7235
a(V1832
VGandey
tp7236
a(V1900
VGawan
tp7237
a(V1958
VGiridih Sadar
tp7238
a(V2430
VJamua
tp7239
a(V4775
VPirtand
tp7240
a(V4956
VRaj Dhanwar
tp7241
a(V6113
VTisri
tp7242
as(V197
VGodda
tp7243
(lp7244
(V995
VBoarijore
tp7245
a(V1964
VGodda Sadar
tp7246
a(V3514
VMahagama
tp7247
a(V3816
VMeharma
tp7248
a(V4611
VPathargama
tp7249
a(V4811
VPoraihat
tp7250
a(V5810
VSunderpahari
tp7251
a(V5972
VThakurgangti
tp7252
as(V220
VHazaribagh
tp7253
(lp7254
(V597
VBarhi
tp7255
a(V607
VBarkagaon
tp7256
a(V608
VBarkatha
tp7257
a(V981
VBishnugarh
tp7258
a(V1205
VChauparan
tp7259
a(V1364
VChurchu
tp7260
a(V2204
VHazaribagh Sadar
tp7261
a(V2274
VIchak
tp7262
a(V2838
VKatkamsandi
tp7263
a(V2888
VKeredari
tp7264
a(V4416
VPadma
tp7265
as(V141
VDeoghar
tp7266
(lp7267
(V1500
VDeogarh Sadar
tp7268
a(V1534
VDevipur
tp7269
a(V2791
VKaron
tp7270
a(V3489
VMadhupur
tp7271
a(V3889
VMohanpur
tp7272
a(V4444
VPalajori
tp7273
a(V5407
VSarath
tp7274
a(V5426
VSarwan
tp7275
as(V333
VLohardaga
tp7276
(lp7277
(V795
VBhandra
tp7278
a(V3055
VKisko
tp7279
a(V3293
VKuru
tp7280
a(V3428
VLohardaga Sadar
tp7281
a(V5482
VSenha
tp7282
ass(V36
VTelangana
tp7283
(dp7284
(V604
VKhammam
tp7285
(lp7286
(V6896
VAswapuram
tp7287
a(V6897
VAswaraopeta
tp7288
a(V6898
VBayyaram
tp7289
a(V6900
VBonakal
tp7290
a(V6901
VChandrugonda
tp7291
a(V6902
VCherla
tp7292
a(V6903
VChinthakani
tp7293
a(V6904
VDammapeta
tp7294
a(V6905
VDummugudem
tp7295
a(V6906
VEnkuru
tp7296
a(V6907
VGarla
tp7297
a(V6908
VGundala
tp7298
a(V6910
VJulurpad
tp7299
a(V6911
VKalluru
tp7300
a(V6912
VKamepalle
tp7301
a(V6913
VKamepalle
tp7302
a(V6914
VKhammam Rural
tp7303
a(V6915
VKhammam Urban
tp7304
a(V6916
VKonijerla
tp7305
a(V6917
VKothagudem
tp7306
a(V6918
VKusumanchi
tp7307
a(V6919
VMadhira
tp7308
a(V6920
VManuguru
tp7309
a(V6921
VMudigonda
tp7310
a(V6922
VMulakalapalle
tp7311
a(V6923
VNelakondapalle
tp7312
a(V6924
VPalawancha
tp7313
a(V6925
VPenuballi
tp7314
a(V6926
VPinapaka
tp7315
a(V6927
VSathupalle
tp7316
a(V6928
VSingareni
tp7317
a(V6929
VTekulapalle
tp7318
a(V6930
VThallada
tp7319
a(V6931
VThirumalayapalem
tp7320
a(V6932
VVemsoor
tp7321
a(V6933
VVenkatapuram
tp7322
a(V6934
VWazeed
tp7323
a(V6935
VWyra
tp7324
a(V6936
VYellandu
tp7325
a(V6937
VYerrupalem
tp7326
as(V605
VMahaboobnagar
tp7327
(lp7328
(V6599
VAchampeta
tp7329
a(V6600
VAddakal
tp7330
a(V6601
VAiza
tp7331
a(V6602
VAlampur
tp7332
a(V6603
VAmangal
tp7333
a(V6604
VAmrabad
tp7334
a(V6605
VAtmakur
tp7335
a(V6606
VBalanagar
tp7336
a(V6607
VBalmoor
tp7337
a(V6608
VBhoothpur
tp7338
a(V6609
VBijinapalle
tp7339
a(V6610
VBomraspeta
tp7340
a(V6611
VChinna Chinta Kunta
tp7341
a(V6612
VDamaragidda
tp7342
a(V6613
VDevarkadara
tp7343
a(V6614
VDhanwada
tp7344
a(V6615
VDharur
tp7345
a(V6616
VDoulatabad
tp7346
a(V6617
VFarooqnagar
tp7347
a(V6618
VGadwal
tp7348
a(V6619
VGhanpur
tp7349
a(V6620
VGhattu
tp7350
a(V6621
VGopalpeta
tp7351
a(V6622
VHanwada
tp7352
a(V6623
VItikyal
tp7353
a(V6624
VJadcherla
tp7354
a(V6625
VKalwakurthy
tp7355
a(V6626
VKeshampeta
tp7356
a(V6627
VKodair
tp7357
a(V6628
VKodangal
tp7358
a(V6629
VKoilkonda
tp7359
a(V6630
VKollapur
tp7360
a(V6631
VKondurg
tp7361
a(V6632
VKosgi
tp7362
a(V6633
VKothakota
tp7363
a(V6634
VKothur
tp7364
a(V6635
VLingal
tp7365
a(V6636
VMaddur
tp7366
a(V6637
VMadgul
tp7367
a(V6638
VMaganoor
tp7368
a(V6639
VMahabubnagar
tp7369
a(V6640
VMakthal
tp7370
a(V6641
VMaldakal
tp7371
a(V6642
VManopadu
tp7372
a(V6643
VMidjil
tp7373
a(V6644
VNagarkurnool
tp7374
a(V6645
VNarayanpet
tp7375
a(V6646
VNarva
tp7376
a(V6647
VNawabpet
tp7377
a(V6648
VPangal
tp7378
a(V6650
VPeddakothapalle
tp7379
a(V6651
VPeddamandadi
tp7380
a(V6652
VTadoor
tp7381
a(V6653
VTalakondapalle
tp7382
a(V6654
VTelkapalle
tp7383
a(V6655
VThimmajipeta
tp7384
a(V6656
VUppununthala
tp7385
a(V6657
VUtkoor
tp7386
a(V6658
VVangoor
tp7387
a(V6659
VVeldanda
tp7388
a(V6661
VWanaparthy
tp7389
a(V6662
VWeepangandla
tp7390
a(V6939
VPebbair
tp7391
a(V6940
VWaddepalle
tp7392
as(V602
VAdilabad
tp7393
(lp7394
(V6490
VAsifabad
tp7395
a(V6491
VBazarhathnoor
tp7396
a(V6492
VAdilabad
tp7397
a(V6493
VBejjur
tp7398
a(V6494
VBela
tp7399
a(V6495
VBellampalle
tp7400
a(V6496
VBhainsa
tp7401
a(V6497
VBheemini
tp7402
a(V6498
VBoath
tp7403
a(V6499
VChennur
tp7404
a(V6501
VDandepalle
tp7405
a(V6502
VDilawarpur
tp7406
a(V6503
VGudihathnur
tp7407
a(V6504
VIchoda
tp7408
a(V6505
VInderavelly
tp7409
a(V6506
VJainad
tp7410
a(V6507
VJainoor
tp7411
a(V6508
VJaipur
tp7412
a(V6509
VJannaram
tp7413
a(V6510
VKaddampeddur
tp7414
a(V6511
VKagaz Nagar
tp7415
a(V6512
VKasipet
tp7416
a(V6513
VKerameri
tp7417
a(V6514
VKhanpur
tp7418
a(V6515
VKotapalle
tp7419
a(V6516
VKouthala
tp7420
a(V6517
VKubeer
tp7421
a(V6518
VKuntala
tp7422
a(V6519
VLaxmanchanda
tp7423
a(V6520
VLohesra
tp7424
a(V6521
VLuxettipet
tp7425
a(V6522
VMamda
tp7426
a(V6523
VMancherial
tp7427
a(V6524
VMandamarri
tp7428
a(V6525
VMudhole
tp7429
a(V6526
VNarnoor
tp7430
a(V6527
VNennal
tp7431
a(V6528
VNeradigonda
tp7432
a(V6529
VNirmal
tp7433
a(V6530
VRebbana
tp7434
a(V6531
VSarangapur
tp7435
a(V6532
VSirpur (T)
tp7436
a(V6533
VSirpur (U)
tp7437
a(V6534
VTalamadugu
tp7438
a(V6535
VTamsi
tp7439
a(V6536
VTandur
tp7440
a(V6537
VTanur
tp7441
a(V6538
VTiryani
tp7442
a(V6539
VUtnur
tp7443
a(V6540
VVemanpalle
tp7444
a(V6541
VWankdi
tp7445
a(V6909
VDahegaon
tp7446
as(V609
VRanga Reddy
tp7447
(lp7448
(V6803
VBalanagar
tp7449
a(V6804
VBantaram
tp7450
a(V6805
VBasheerabad
tp7451
a(V6806
VChevella
tp7452
a(V6807
VDharur
tp7453
a(V6808
VDoma
tp7454
a(V6809
VGandeed
tp7455
a(V6810
VGhatkesar
tp7456
a(V6811
VHayathnagar
tp7457
a(V6812
VIbrahimpatam
tp7458
a(V6813
VKandukur
tp7459
a(V6814
VKeesara
tp7460
a(V6815
VKulkacharla
tp7461
a(V6816
VMaheswaram
tp7462
a(V6817
VMalkajgiri
tp7463
a(V6818
VManchal
tp7464
a(V6819
VMarpalle
tp7465
a(V6820
VMedchal
tp7466
a(V6821
VMoinabad
tp7467
a(V6822
VMominpet
tp7468
a(V6823
VNawabpet
tp7469
a(V6824
VPargi
tp7470
a(V6825
VPeddemul
tp7471
a(V6826
VPudur
tp7472
a(V6827
VQuthbullapur
tp7473
a(V6828
VRajendranagar
tp7474
a(V6829
VSaroornagar
tp7475
a(V6830
VSerilingampalle
tp7476
a(V6831
VShabad
tp7477
a(V6832
VShamirpet
tp7478
a(V6833
VShamshabad
tp7479
a(V6834
VShankarpalle
tp7480
a(V6835
VTandur
tp7481
a(V6836
VUppal
tp7482
a(V6837
VVikarabad
tp7483
a(V6838
VYacharam
tp7484
a(V6839
VYelal
tp7485
as(V608
VNizamabad
tp7486
(lp7487
(V6767
VArmur
tp7488
a(V6768
VBalkonda
tp7489
a(V6769
VBanswada
tp7490
a(V6770
VBheemgal
tp7491
a(V6771
VBhiknur
tp7492
a(V6772
VBirkoor
tp7493
a(V6773
VBichkunda
tp7494
a(V6774
VBodhan
tp7495
a(V6775
VDhar Pally
tp7496
a(V6776
VDich Pally
tp7497
a(V6777
VDomakonda
tp7498
a(V6778
VGandhari
tp7499
a(V6779
VJakranpalle
tp7500
a(V6780
VJukkal
tp7501
a(V6781
VKamareddy
tp7502
a(V6782
VKammar Palle
tp7503
a(V6783
VKotgiri
tp7504
a(V6784
VLingampet
tp7505
a(V6785
VMachareddy
tp7506
a(V6786
VMadnur
tp7507
a(V6787
VMakloor
tp7508
a(V6788
VMortad
tp7509
a(V6789
VNagireddipet
tp7510
a(V6790
VNandipet
tp7511
a(V6791
VNavipet
tp7512
a(V6792
VNizam Sagar
tp7513
a(V6793
VNizamabad
tp7514
a(V6794
VPitlam
tp7515
a(V6795
VRanjal
tp7516
a(V6796
VSadasivanagar
tp7517
a(V6797
VSirkonda
tp7518
a(V6798
VTadwai
tp7519
a(V6799
VVarni
tp7520
a(V6800
VVelpur
tp7521
a(V6801
VYeda Palle
tp7522
a(V6802
VYellareddy
tp7523
as(V603
VKarimnagar
tp7524
(lp7525
(V6542
VBejjenki
tp7526
a(V6543
VBheemadevarpalle
tp7527
a(V6544
VBoinpalle
tp7528
a(V6545
VChandurthi
tp7529
a(V6546
VChigurumamidi
tp7530
a(V6547
VChoppadandi
tp7531
a(V6548
VDharmapuri
tp7532
a(V6549
VDharmaram
tp7533
a(V6550
VEligaid
tp7534
a(V6551
VElkathurthi
tp7535
a(V6552
VEllanthakunta
tp7536
a(V6553
VGambhiraopet
tp7537
a(V6554
VGangadhara
tp7538
a(V6555
VGollapalle
tp7539
a(V6556
VHusnabad
tp7540
a(V6557
VHuzurabad
tp7541
a(V6558
VIbrahimpatnam
tp7542
a(V6559
VJagtial
tp7543
a(V6560
VJammikunta
tp7544
a(V6561
VJulapalle
tp7545
a(V6562
VKamalapur
tp7546
a(V6563
VKamanpur
tp7547
a(V6565
VKataram
tp7548
a(V6566
VKathlapur
tp7549
a(V6567
VKodimial
tp7550
a(V6568
VKoheda
tp7551
a(V6569
VKonaraopeta
tp7552
a(V6570
VKoratla
tp7553
a(V6571
VMahadevpur
tp7554
a(V6572
VMalharrao
tp7555
a(V6573
VMallapur
tp7556
a(V6574
VMallial
tp7557
a(V6575
VManakondur
tp7558
a(V6576
VManthani
tp7559
a(V6577
VMedipalle
tp7560
a(V6578
VMetpalle
tp7561
a(V6579
VMustabad
tp7562
a(V6580
VMutharam Mahadevpur
tp7563
a(V6581
VMutharam Manthani
tp7564
a(V6582
VOdela
tp7565
a(V6583
VPeddapalle
tp7566
a(V6584
VPegadapalle
tp7567
a(V6585
VRaikal
tp7568
a(V6586
VRamadugu
tp7569
a(V6587
VRamagundam
tp7570
a(V6588
VSaidapur
tp7571
a(V6589
VSarangapur
tp7572
a(V6590
VShankerpatnam
tp7573
a(V6591
VSirsilla
tp7574
a(V6592
VSrirampur
tp7575
a(V6593
VSultanabad
tp7576
a(V6594
VThimmapur
tp7577
a(V6595
VVeenavanka
tp7578
a(V6596
VVelgatoor
tp7579
a(V6597
VVemulawada
tp7580
a(V6598
VYella Reddi Peta
tp7581
a(V6941
VKarimnagar
tp7582
as(V607
VNalgonda
tp7583
(lp7584
(V6708
VAlair
tp7585
a(V6709
VAnumula
tp7586
a(V6710
VAravapally
tp7587
a(V6711
VAtmakur (S)
tp7588
a(V6712
VAtmakur (M)
tp7589
a(V6713
VBhuvanagiri
tp7590
a(V6714
VBibinagar
tp7591
a(V6715
VBommalaramaram
tp7592
a(V6716
VChandam Pet
tp7593
a(V6717
VChandur
tp7594
a(V6718
VChilkur
tp7595
a(V6719
VChintha Pally
tp7596
a(V6720
VChityal
tp7597
a(V6721
VChivvemla
tp7598
a(V6722
VChoutuppal
tp7599
a(V6723
VDameracherla
tp7600
a(V6724
VDevarakonda
tp7601
a(V6725
VGaride Pally
tp7602
a(V6726
VGundala
tp7603
a(V6727
VGundla Pally
tp7604
a(V6728
VGurrampode
tp7605
a(V6729
VHuzurnagar
tp7606
a(V6730
VKangal
tp7607
a(V6731
VKattangoor
tp7608
a(V6732
VKethepally
tp7609
a(V6733
VKodad
tp7610
a(V6734
VMarri Guda
tp7611
a(V6735
VMattampally
tp7612
a(V6736
VMellachervu
tp7613
a(V6737
VMiryalaguda
tp7614
a(V6738
VMothey
tp7615
a(V6739
VMothkur
tp7616
a(V6740
VMunagala
tp7617
a(V6741
VMunugode
tp7618
a(V6742
VNadigudem
tp7619
a(V6743
VNakrekal
tp7620
a(V6744
VNalgonda
tp7621
a(V6745
VNampalle
tp7622
a(V6746
VNarayanapur
tp7623
a(V6747
VNarketpally
tp7624
a(V6748
VNered Cherla
tp7625
a(V6749
VNidamanoor
tp7626
a(V6750
VNuthankal
tp7627
a(V6751
VPedda Adiserlapalle
tp7628
a(V6752
VPeddavoora
tp7629
a(V6753
VPenpahad
tp7630
a(V6754
VPochampally
tp7631
a(V6755
VRajapet
tp7632
a(V6756
VRamannapeta
tp7633
a(V6757
VSaligouraram
tp7634
a(V6758
VSuryapet
tp7635
a(V6759
VThipparthy
tp7636
a(V6760
VThirumalagiri
tp7637
a(V6761
VThripuraram
tp7638
a(V6762
VThunga Thurthy
tp7639
a(V6763
VThurkapally
tp7640
a(V6764
VValigonda
tp7641
a(V6765
VVemulapally
tp7642
a(V6766
VYadagirigutta
tp7643
as(V606
VMedak
tp7644
(lp7645
(V6663
VAlladurg
tp7646
a(V6664
VAndole
tp7647
a(V6665
VChegunta
tp7648
a(V6666
VChinna Kodur
tp7649
a(V6667
VDoultabad
tp7650
a(V6668
VDubbak
tp7651
a(V6669
VGajwel
tp7652
a(V6670
VHathnoora
tp7653
a(V6671
VJagdevpur
tp7654
a(V6672
VJharasangam
tp7655
a(V6673
VJinnaram
tp7656
a(V6674
VKalher
tp7657
a(V6675
VKangti
tp7658
a(V6676
VKohir
tp7659
a(V6677
VKondapak
tp7660
a(V6678
VKondapur
tp7661
a(V6679
VKowdipalle
tp7662
a(V6680
VKulcharam
tp7663
a(V6681
VManoor
tp7664
a(V6682
VMedak
tp7665
a(V6683
VMirdoddi
tp7666
a(V6684
VMulug
tp7667
a(V6685
VMunpalle
tp7668
a(V6686
VNanganur
tp7669
a(V6687
VNarayankhed
tp7670
a(V6688
VNarsapur
tp7671
a(V6689
VNyalkal
tp7672
a(V6690
VPapannapet
tp7673
a(V6691
VPatancheru
tp7674
a(V6692
VPulkal
tp7675
a(V6693
VRaikode
tp7676
a(V6694
VRamachandrapuram
tp7677
a(V6695
VRamayampet
tp7678
a(V6696
VRegode
tp7679
a(V6697
VSadasivpet
tp7680
a(V6698
VSangareddy
tp7681
a(V6699
VShankarampet (A)
tp7682
a(V6700
VShankarampet (R)
tp7683
a(V6701
VShivampet
tp7684
a(V6702
VSiddipet
tp7685
a(V6703
VTekmal
tp7686
a(V6704
VTupran
tp7687
a(V6705
VWargal
tp7688
a(V6706
VYeldurthy
tp7689
a(V6707
VZahirabad
tp7690
as(V610
VWarangal
tp7691
(lp7692
(V6840
VAtmakur
tp7693
a(V6841
VBachannapeta
tp7694
a(V6842
VBhupalpalle
tp7695
a(V6843
VChennaraopet
tp7696
a(V6844
VCheriyal
tp7697
a(V6845
VChityal
tp7698
a(V6846
VDevaruppula
tp7699
a(V6847
VDharmasagar
tp7700
a(V6848
VDornakal
tp7701
a(V6849
VDuggondi
tp7702
a(V6850
VEturnagaram
tp7703
a(V6851
VGeesugonda
tp7704
a(V6852
VGhanapur Mulug
tp7705
a(V6853
VGhanpur(Stn)
tp7706
a(V6854
VGovindaraopet
tp7707
a(V6855
VGudur
tp7708
a(V6856
VHanamkonda
tp7709
a(V6857
VHasanparthy
tp7710
a(V6858
VJangaon
tp7711
a(V6859
VKesamudram
tp7712
a(V6860
VKhanapur
tp7713
a(V6861
VKodakandla
tp7714
a(V6862
VKothaguda
tp7715
a(V6863
VKuravi
tp7716
a(V6864
VLingala Ghanpur
tp7717
a(V6865
VMaddur
tp7718
a(V6866
VMahabubabad
tp7719
a(V6867
VMangapet
tp7720
a(V6868
VMaripeda
tp7721
a(V6869
VMogullapalle
tp7722
a(V6870
VMulug
tp7723
a(V6871
VNallabelly
tp7724
a(V6872
VNarmetta
tp7725
a(V6873
VNarsampet
tp7726
a(V6874
VNarsimhulapet
tp7727
a(V6875
VNekkonda
tp7728
a(V6876
VNellikudur
tp7729
a(V6877
VPalakurthi
tp7730
a(V6878
VParkal
tp7731
a(V6879
VParvathagiri
tp7732
a(V6880
VRaghunathapally
tp7733
a(V6881
VRaiparthy
tp7734
a(V6882
VRegonda
tp7735
a(V6883
VSangem
tp7736
a(V6884
VShayampet
tp7737
a(V6885
VTadvai
tp7738
a(V6886
VThorrur
tp7739
a(V6887
VVenkatapur
tp7740
a(V6888
VWardhannapet
tp7741
a(V6889
VZaffergadh
tp7742
ass.